(dp0
Vgeometry
p1
(dp2
Vlocation
p3
(dp4
Vlat
p5
F33.917318
sVlng
p6
F-118.410369
ssVviewport
p7
(dp8
Vnortheast
p9
(dp10
Vlat
p11
F33.9186669802915
sVlng
p12
F-118.4090200197085
ssVsouthwest
p13
(dp14
Vlat
p15
F33.91596901970851
sVlng
p16
F-118.4117179802915
sssVlocation_type
p17
VROOFTOP
p18
ssVformatted_address
p19
V127 Penn St, El Segundo, CA 90245, USA
p20
sVplace_id
p21
VChIJDe0UdUSxwoART356vuJA9ZM
p22
sVaddress_components
p23
(lp24
(dp25
Vlong_name
p26
V127
p27
sVtypes
p28
(lp29
Vstreet_number
p30
asVshort_name
p31
V127
p32
sa(dp33
Vlong_name
p34
VPenn Street
p35
sVtypes
p36
(lp37
Vroute
p38
asVshort_name
p39
VPenn St
p40
sa(dp41
Vlong_name
p42
VEl Segundo
p43
sVtypes
p44
(lp45
Vlocality
p46
aVpolitical
p47
asVshort_name
p48
VEl Segundo
p49
sa(dp50
Vlong_name
p51
VLos Angeles County
p52
sVtypes
p53
(lp54
Vadministrative_area_level_2
p55
aVpolitical
p56
asVshort_name
p57
VLos Angeles County
p58
sa(dp59
Vlong_name
p60
VCalifornia
p61
sVtypes
p62
(lp63
Vadministrative_area_level_1
p64
aVpolitical
p65
asVshort_name
p66
VCA
p67
sa(dp68
Vlong_name
p69
VUnited States
p70
sVtypes
p71
(lp72
Vcountry
p73
aVpolitical
p74
asVshort_name
p75
VUS
p76
sa(dp77
Vlong_name
p78
V90245
p79
sVtypes
p80
(lp81
Vpostal_code
p82
asVshort_name
p83
V90245
p84
sa(dp85
Vlong_name
p86
V3908
p87
sVtypes
p88
(lp89
Vpostal_code_suffix
p90
asVshort_name
p91
V3908
p92
sasVpartial_match
p93
I01
sVtypes
p94
(lp95
Velectronics_store
p96
aVestablishment
p97
aVhome_goods_store
p98
aVpoint_of_interest
p99
aVstore
p100
as.