(dp0
Vgeometry
p1
(dp2
Vlocation
p3
(dp4
Vlat
p5
F37.774488
sVlng
p6
F-122.409113
ssVviewport
p7
(dp8
Vnortheast
p9
(dp10
Vlat
p11
F37.77583698029149
sVlng
p12
F-122.4077640197085
ssVsouthwest
p13
(dp14
Vlat
p15
F37.77313901970849
sVlng
p16
F-122.4104619802915
sssVlocation_type
p17
VROOFTOP
p18
ssVaddress_components
p19
(lp20
(dp21
Vlong_name
p22
V355
p23
sVtypes
p24
(lp25
Vstreet_number
p26
asVshort_name
p27
V355
p28
sa(dp29
Vlong_name
p30
V8th Street
p31
sVtypes
p32
(lp33
Vroute
p34
asVshort_name
p35
V8th St
p36
sa(dp37
Vlong_name
p38
VSouth of Market
p39
sVtypes
p40
(lp41
Vneighborhood
p42
aVpolitical
p43
asVshort_name
p44
VSouth of Market
p45
sa(dp46
Vlong_name
p47
VSan Francisco
p48
sVtypes
p49
(lp50
Vlocality
p51
aVpolitical
p52
asVshort_name
p53
VSF
p54
sa(dp55
Vlong_name
p56
VSan Francisco County
p57
sVtypes
p58
(lp59
Vadministrative_area_level_2
p60
aVpolitical
p61
asVshort_name
p62
VSan Francisco County
p63
sa(dp64
Vlong_name
p65
VCalifornia
p66
sVtypes
p67
(lp68
Vadministrative_area_level_1
p69
aVpolitical
p70
asVshort_name
p71
VCA
p72
sa(dp73
Vlong_name
p74
VUnited States
p75
sVtypes
p76
(lp77
Vcountry
p78
aVpolitical
p79
asVshort_name
p80
VUS
p81
sa(dp82
Vlong_name
p83
V94103
p84
sVtypes
p85
(lp86
Vpostal_code
p87
asVshort_name
p88
V94103
p89
sa(dp90
Vlong_name
p91
V4401
p92
sVtypes
p93
(lp94
Vpostal_code_suffix
p95
asVshort_name
p96
V4401
p97
sasVplace_id
p98
VChIJLzC5XXiAhYARUsRQ8zMxOr8
p99
sVformatted_address
p100
V355 8th St, San Francisco, CA 94103, USA
p101
sVtypes
p102
(lp103
Vestablishment
p104
aVpoint_of_interest
p105
as.