(dp0
Vgeometry
p1
(dp2
Vlocation_type
p3
VGEOMETRIC_CENTER
p4
sVbounds
p5
(dp6
Vnortheast
p7
(dp8
Vlat
p9
F47.0812134
sVlng
p10
F-122.7437703
ssVsouthwest
p11
(dp12
Vlat
p13
F47.0805403
sVlng
p14
F-122.7449557
sssVviewport
p15
(dp16
Vnortheast
p17
(dp18
Vlat
p19
F47.08222583029149
sVlng
p20
F-122.7430140197085
ssVsouthwest
p21
(dp22
Vlat
p23
F47.0795278697085
sVlng
p24
F-122.7457119802915
sssVlocation
p25
(dp26
Vlat
p27
F47.0808955
sVlng
p28
F-122.7443754
sssVformatted_address
p29
VChristine Ct NE, Lacey, WA 98516, USA
p30
sVplace_id
p31
VChIJhfKXEn0JkVQRRY7Td6POtYA
p32
sVaddress_components
p33
(lp34
(dp35
Vlong_name
p36
VChristine Court Northeast
p37
sVtypes
p38
(lp39
Vroute
p40
asVshort_name
p41
VChristine Ct NE
p42
sa(dp43
Vlong_name
p44
VLacey
p45
sVtypes
p46
(lp47
Vlocality
p48
aVpolitical
p49
asVshort_name
p50
VLacey
p51
sa(dp52
Vlong_name
p53
VThurston County
p54
sVtypes
p55
(lp56
Vadministrative_area_level_2
p57
aVpolitical
p58
asVshort_name
p59
VThurston County
p60
sa(dp61
Vlong_name
p62
VWashington
p63
sVtypes
p64
(lp65
Vadministrative_area_level_1
p66
aVpolitical
p67
asVshort_name
p68
VWA
p69
sa(dp70
Vlong_name
p71
VUnited States
p72
sVtypes
p73
(lp74
Vcountry
p75
aVpolitical
p76
asVshort_name
p77
VUS
p78
sa(dp79
Vlong_name
p80
V98516
p81
sVtypes
p82
(lp83
Vpostal_code
p84
asVshort_name
p85
V98516
p86
sasVpartial_match
p87
I01
sVtypes
p88
(lp89
Vroute
p90
as.