(dp0
Vgeometry
p1
(dp2
Vlocation
p3
(dp4
Vlat
p5
F35.9976357
sVlng
p6
F-76.9559586
ssVviewport
p7
(dp8
Vnortheast
p9
(dp10
Vlat
p11
F35.9989846802915
sVlng
p12
F-76.9546096197085
ssVsouthwest
p13
(dp14
Vlat
p15
F35.9962867197085
sVlng
p16
F-76.95730758029151
sssVlocation_type
p17
VRANGE_INTERPOLATED
p18
ssVformatted_address
p19
V541 Ghent St, Windsor, NC 27983, USA
p20
sVplace_id
p21
VEiQ1NDEgR2hlbnQgU3QsIFdpbmRzb3IsIE5DIDI3OTgzLCBVU0EiGxIZChQKEgktxNTWNqSviREEXSkBvBcN4xCdBA
p22
sVaddress_components
p23
(lp24
(dp25
Vlong_name
p26
V541
p27
sVtypes
p28
(lp29
Vstreet_number
p30
asVshort_name
p31
V541
p32
sa(dp33
Vlong_name
p34
VGhent Street
p35
sVtypes
p36
(lp37
Vroute
p38
asVshort_name
p39
VGhent St
p40
sa(dp41
Vlong_name
p42
VWindsor
p43
sVtypes
p44
(lp45
Vlocality
p46
aVpolitical
p47
asVshort_name
p48
VWindsor
p49
sa(dp50
Vlong_name
p51
VWindsor
p52
sVtypes
p53
(lp54
Vadministrative_area_level_3
p55
aVpolitical
p56
asVshort_name
p57
VWindsor
p58
sa(dp59
Vlong_name
p60
VBertie County
p61
sVtypes
p62
(lp63
Vadministrative_area_level_2
p64
aVpolitical
p65
asVshort_name
p66
VBertie County
p67
sa(dp68
Vlong_name
p69
VNorth Carolina
p70
sVtypes
p71
(lp72
Vadministrative_area_level_1
p73
aVpolitical
p74
asVshort_name
p75
VNC
p76
sa(dp77
Vlong_name
p78
VUnited States
p79
sVtypes
p80
(lp81
Vcountry
p82
aVpolitical
p83
asVshort_name
p84
VUS
p85
sa(dp86
Vlong_name
p87
V27983
p88
sVtypes
p89
(lp90
Vpostal_code
p91
asVshort_name
p92
V27983
p93
sa(dp94
Vlong_name
p95
V2022
p96
sVtypes
p97
(lp98
Vpostal_code_suffix
p99
asVshort_name
p100
V2022
p101
sasVpartial_match
p102
I01
sVtypes
p103
(lp104
Vstreet_address
p105
as.