(dp0
Vgeometry
p1
(dp2
Vlocation
p3
(dp4
Vlat
p5
F35.75883320000001
sVlng
p6
F-90.32413679999999
ssVviewport
p7
(dp8
Vnortheast
p9
(dp10
Vlat
p11
F35.76018218029151
sVlng
p12
F-90.3227878197085
ssVsouthwest
p13
(dp14
Vlat
p15
F35.75748421970851
sVlng
p16
F-90.3254857802915
sssVlocation_type
p17
VRANGE_INTERPOLATED
p18
ssVformatted_address
p19
V75 N San Francisco Ave, Caraway, AR 72419, USA
p20
sVplace_id
p21
VEi43NSBOIFNhbiBGcmFuY2lzY28gQXZlLCBDYXJhd2F5LCBBUiA3MjQxOSwgVVNBIhoSGAoUChIJ_xIvNTzd1YcR-SKhhkQnfAQQSw
p22
sVaddress_components
p23
(lp24
(dp25
Vlong_name
p26
V75
p27
sVtypes
p28
(lp29
Vstreet_number
p30
asVshort_name
p31
V75
p32
sa(dp33
Vlong_name
p34
VNorth San Francisco Avenue
p35
sVtypes
p36
(lp37
Vroute
p38
asVshort_name
p39
VN San Francisco Ave
p40
sa(dp41
Vlong_name
p42
VCaraway
p43
sVtypes
p44
(lp45
Vlocality
p46
aVpolitical
p47
asVshort_name
p48
VCaraway
p49
sa(dp50
Vlong_name
p51
VBlack Oak Township
p52
sVtypes
p53
(lp54
Vadministrative_area_level_3
p55
aVpolitical
p56
asVshort_name
p57
VBlack Oak Township
p58
sa(dp59
Vlong_name
p60
VCraighead County
p61
sVtypes
p62
(lp63
Vadministrative_area_level_2
p64
aVpolitical
p65
asVshort_name
p66
VCraighead County
p67
sa(dp68
Vlong_name
p69
VArkansas
p70
sVtypes
p71
(lp72
Vadministrative_area_level_1
p73
aVpolitical
p74
asVshort_name
p75
VAR
p76
sa(dp77
Vlong_name
p78
VUnited States
p79
sVtypes
p80
(lp81
Vcountry
p82
aVpolitical
p83
asVshort_name
p84
VUS
p85
sa(dp86
Vlong_name
p87
V72419
p88
sVtypes
p89
(lp90
Vpostal_code
p91
asVshort_name
p92
V72419
p93
sasVpartial_match
p94
I01
sVtypes
p95
(lp96
Vstreet_address
p97
as.