(dp0
Vgeometry
p1
(dp2
Vlocation
p3
(dp4
Vlat
p5
F39.3566224
sVlng
p6
F-76.70715369999999
ssVviewport
p7
(dp8
Vnortheast
p9
(dp10
Vlat
p11
F39.3579713802915
sVlng
p12
F-76.7058047197085
ssVsouthwest
p13
(dp14
Vlat
p15
F39.3552734197085
sVlng
p16
F-76.7085026802915
sssVlocation_type
p17
VROOFTOP
p18
ssVformatted_address
p19
V6764 Reisterstown Rd B, Baltimore, MD 21215, USA
p20
sVplace_id
p21
VChIJI6x5QkEayIkRKCqmzPdsdj8
p22
sVaddress_components
p23
(lp24
(dp25
Vlong_name
p26
VB
p27
sVtypes
p28
(lp29
Vsubpremise
p30
asVshort_name
p31
g27
sa(dp32
Vlong_name
p33
V6764
p34
sVtypes
p35
(lp36
Vstreet_number
p37
asVshort_name
p38
V6764
p39
sa(dp40
Vlong_name
p41
VReisterstown Road
p42
sVtypes
p43
(lp44
Vroute
p45
asVshort_name
p46
VReisterstown Rd
p47
sa(dp48
Vlong_name
p49
VReisterstown Station
p50
sVtypes
p51
(lp52
Vneighborhood
p53
aVpolitical
p54
asVshort_name
p55
VReisterstown Station
p56
sa(dp57
Vlong_name
p58
VBaltimore
p59
sVtypes
p60
(lp61
Vlocality
p62
aVpolitical
p63
asVshort_name
p64
VBaltimore
p65
sa(dp66
Vlong_name
p67
VMaryland
p68
sVtypes
p69
(lp70
Vadministrative_area_level_1
p71
aVpolitical
p72
asVshort_name
p73
VMD
p74
sa(dp75
Vlong_name
p76
VUnited States
p77
sVtypes
p78
(lp79
Vcountry
p80
aVpolitical
p81
asVshort_name
p82
VUS
p83
sa(dp84
Vlong_name
p85
V21215
p86
sVtypes
p87
(lp88
Vpostal_code
p89
asVshort_name
p90
V21215
p91
sasVpartial_match
p92
I01
sVtypes
p93
(lp94
Vestablishment
p95
aVpoint_of_interest
p96
as.