(dp0
Vgeometry
p1
(dp2
Vlocation
p3
(dp4
Vlat
p5
F37.8389628
sVlng
p6
F-122.2912182
ssVviewport
p7
(dp8
Vnortheast
p9
(dp10
Vlat
p11
F37.8403117802915
sVlng
p12
F-122.2898692197085
ssVsouthwest
p13
(dp14
Vlat
p15
F37.8376138197085
sVlng
p16
F-122.2925671802915
sssVlocation_type
p17
VROOFTOP
p18
ssVaddress_components
p19
(lp20
(dp21
Vlong_name
p22
V# F
p23
sVtypes
p24
(lp25
Vsubpremise
p26
asVshort_name
p27
V# F
p28
sa(dp29
Vlong_name
p30
V1501
p31
sVtypes
p32
(lp33
Vstreet_number
p34
asVshort_name
p35
V1501
p36
sa(dp37
Vlong_name
p38
VPowell Street
p39
sVtypes
p40
(lp41
Vroute
p42
asVshort_name
p43
VPowell St
p44
sa(dp45
Vlong_name
p46
VEmeryville
p47
sVtypes
p48
(lp49
Vlocality
p50
aVpolitical
p51
asVshort_name
p52
VEmeryville
p53
sa(dp54
Vlong_name
p55
VAlameda County
p56
sVtypes
p57
(lp58
Vadministrative_area_level_2
p59
aVpolitical
p60
asVshort_name
p61
VAlameda County
p62
sa(dp63
Vlong_name
p64
VCalifornia
p65
sVtypes
p66
(lp67
Vadministrative_area_level_1
p68
aVpolitical
p69
asVshort_name
p70
VCA
p71
sa(dp72
Vlong_name
p73
VUnited States
p74
sVtypes
p75
(lp76
Vcountry
p77
aVpolitical
p78
asVshort_name
p79
VUS
p80
sa(dp81
Vlong_name
p82
V94608
p83
sVtypes
p84
(lp85
Vpostal_code
p86
asVshort_name
p87
V94608
p88
sa(dp89
Vlong_name
p90
V2087
p91
sVtypes
p92
(lp93
Vpostal_code_suffix
p94
asVshort_name
p95
V2087
p96
sasVplace_id
p97
VChIJzbeMIEN-hYARkSVSlCVqV4E
p98
sVformatted_address
p99
V1501 Powell St # F, Emeryville, CA 94608, USA
p100
sVtypes
p101
(lp102
Velectronics_store
p103
aVestablishment
p104
aVhome_goods_store
p105
aVpoint_of_interest
p106
aVstore
p107
as.