(dp0
Vgeometry
p1
(dp2
Vlocation
p3
(dp4
Vlat
p5
F32.7574176
sVlng
p6
F-97.3541977
ssVviewport
p7
(dp8
Vnortheast
p9
(dp10
Vlat
p11
F32.75876658029149
sVlng
p12
F-97.3528487197085
ssVsouthwest
p13
(dp14
Vlat
p15
F32.75606861970849
sVlng
p16
F-97.35554668029151
sssVlocation_type
p17
VROOFTOP
p18
ssVaddress_components
p19
(lp20
(dp21
Vlong_name
p22
V2628
p23
sVtypes
p24
(lp25
Vstreet_number
p26
asVshort_name
p27
V2628
p28
sa(dp29
Vlong_name
p30
VWeisenberger Street
p31
sVtypes
p32
(lp33
Vroute
p34
asVshort_name
p35
VWeisenberger St
p36
sa(dp37
Vlong_name
p38
VFort Worth
p39
sVtypes
p40
(lp41
Vlocality
p42
aVpolitical
p43
asVshort_name
p44
VFort Worth
p45
sa(dp46
Vlong_name
p47
VTarrant County
p48
sVtypes
p49
(lp50
Vadministrative_area_level_2
p51
aVpolitical
p52
asVshort_name
p53
VTarrant County
p54
sa(dp55
Vlong_name
p56
VTexas
p57
sVtypes
p58
(lp59
Vadministrative_area_level_1
p60
aVpolitical
p61
asVshort_name
p62
VTX
p63
sa(dp64
Vlong_name
p65
VUnited States
p66
sVtypes
p67
(lp68
Vcountry
p69
aVpolitical
p70
asVshort_name
p71
VUS
p72
sa(dp73
Vlong_name
p74
V76107
p75
sVtypes
p76
(lp77
Vpostal_code
p78
asVshort_name
p79
V76107
p80
sasVplace_id
p81
VChIJjY6pmMhzToYRY3oJgzqkDpA
p82
sVformatted_address
p83
V2628 Weisenberger St, Fort Worth, TX 76107, USA
p84
sVtypes
p85
(lp86
Vclothing_store
p87
aVelectronics_store
p88
aVestablishment
p89
aVhome_goods_store
p90
aVpoint_of_interest
p91
aVstore
p92
as.