(dp0
Vgeometry
p1
(dp2
Vlocation_type
p3
VAPPROXIMATE
p4
sVbounds
p5
(dp6
Vnortheast
p7
(dp8
Vlat
p9
F51.448026
sVlng
p10
F12.5506377
ssVsouthwest
p11
(dp12
Vlat
p13
F51.235539
sVlng
p14
F12.2366321
sssVviewport
p15
(dp16
Vnortheast
p17
(dp18
Vlat
p19
F51.448026
sVlng
p20
F12.5506377
ssVsouthwest
p21
(dp22
Vlat
p23
F51.235539
sVlng
p24
F12.2366321
sssVlocation
p25
(dp26
Vlat
p27
F51.3396955
sVlng
p28
F12.3730747
sssVformatted_address
p29
VLeipzig, Germany
p30
sVplace_id
p31
VChIJcywPIBj4pkcRUvW0udKA35M
p32
sVaddress_components
p33
(lp34
(dp35
Vlong_name
p36
VLeipzig
p37
sVtypes
p38
(lp39
Vlocality
p40
aVpolitical
p41
asVshort_name
p42
VLeipzig
p43
sa(dp44
Vlong_name
p45
VLeipzig
p46
sVtypes
p47
(lp48
Vadministrative_area_level_2
p49
aVpolitical
p50
asVshort_name
p51
VLeipzig
p52
sa(dp53
Vlong_name
p54
VSaxony
p55
sVtypes
p56
(lp57
Vadministrative_area_level_1
p58
aVpolitical
p59
asVshort_name
p60
VSN
p61
sa(dp62
Vlong_name
p63
VGermany
p64
sVtypes
p65
(lp66
Vcountry
p67
aVpolitical
p68
asVshort_name
p69
VDE
p70
sasVpartial_match
p71
I01
sVtypes
p72
(lp73
Vlocality
p74
aVpolitical
p75
as.