(dp0
Vgeometry
p1
(dp2
Vlocation_type
p3
VAPPROXIMATE
p4
sVbounds
p5
(dp6
Vnortheast
p7
(dp8
Vlat
p9
F40.739446
sVlng
p10
F-73.8333651
ssVsouthwest
p11
(dp12
Vlat
p13
F40.551042
sVlng
p14
F-74.05663
sssVviewport
p15
(dp16
Vnortheast
p17
(dp18
Vlat
p19
F40.739446
sVlng
p20
F-73.8333651
ssVsouthwest
p21
(dp22
Vlat
p23
F40.551042
sVlng
p24
F-74.05663
sssVlocation
p25
(dp26
Vlat
p27
F40.6781784
sVlng
p28
F-73.9441579
sssVformatted_address
p29
VBrooklyn, NY, USA
p30
sVplace_id
p31
VChIJCSF8lBZEwokRhngABHRcdoI
p32
sVaddress_components
p33
(lp34
(dp35
Vlong_name
p36
VBrooklyn
p37
sVtypes
p38
(lp39
Vpolitical
p40
aVsublocality
p41
aVsublocality_level_1
p42
asVshort_name
p43
VBrooklyn
p44
sa(dp45
Vlong_name
p46
VKings County
p47
sVtypes
p48
(lp49
Vadministrative_area_level_2
p50
aVpolitical
p51
asVshort_name
p52
VKings County
p53
sa(dp54
Vlong_name
p55
VNew York
p56
sVtypes
p57
(lp58
Vadministrative_area_level_1
p59
aVpolitical
p60
asVshort_name
p61
VNY
p62
sa(dp63
Vlong_name
p64
VUnited States
p65
sVtypes
p66
(lp67
Vcountry
p68
aVpolitical
p69
asVshort_name
p70
VUS
p71
sasVpartial_match
p72
I01
sVtypes
p73
(lp74
Vpolitical
p75
aVsublocality
p76
aVsublocality_level_1
p77
as.