(dp0
Vgeometry
p1
(dp2
Vlocation
p3
(dp4
Vlat
p5
F51.4966968
sVlng
p6
F-0.1651408
ssVviewport
p7
(dp8
Vnortheast
p9
(dp10
Vlat
p11
F51.49804578029149
sVlng
p12
F-0.163791819708498
ssVsouthwest
p13
(dp14
Vlat
p15
F51.49534781970849
sVlng
p16
F-0.166489780291502
sssVlocation_type
p17
VROOFTOP
p18
ssVaddress_components
p19
(lp20
(dp21
Vlong_name
p22
V27
p23
sVtypes
p24
(lp25
Vstreet_number
p26
asVshort_name
p27
V27
p28
sa(dp29
Vlong_name
p30
VOvington Square
p31
sVtypes
p32
(lp33
Vroute
p34
asVshort_name
p35
VOvington Square
p36
sa(dp37
Vlong_name
p38
VChelsea
p39
sVtypes
p40
(lp41
Vneighborhood
p42
aVpolitical
p43
asVshort_name
p44
VChelsea
p45
sa(dp46
Vlong_name
p47
VLondon
p48
sVtypes
p49
(lp50
Vpostal_town
p51
asVshort_name
p52
VLondon
p53
sa(dp54
Vlong_name
p55
VGreater London
p56
sVtypes
p57
(lp58
Vadministrative_area_level_2
p59
aVpolitical
p60
asVshort_name
p61
VGreater London
p62
sa(dp63
Vlong_name
p64
VEngland
p65
sVtypes
p66
(lp67
Vadministrative_area_level_1
p68
aVpolitical
p69
asVshort_name
p70
VEngland
p71
sa(dp72
Vlong_name
p73
VUnited Kingdom
p74
sVtypes
p75
(lp76
Vcountry
p77
aVpolitical
p78
asVshort_name
p79
VGB
p80
sa(dp81
Vlong_name
p82
VSW3 1LJ
p83
sVtypes
p84
(lp85
Vpostal_code
p86
asVshort_name
p87
VSW3 1LJ
p88
sasVplace_id
p89
VChIJjx-DiEAFdkgRAo3MQ7v7aQo
p90
sVformatted_address
p91
V27 Ovington Square, Chelsea, London SW3 1LJ, UK
p92
sVtypes
p93
(lp94
Vestablishment
p95
aVpoint_of_interest
p96
as.