(dp0
Vgeometry
p1
(dp2
Vlocation_type
p3
VAPPROXIMATE
p4
sVbounds
p5
(dp6
Vnortheast
p7
(dp8
Vlat
p9
F53.42521010000001
sVlng
p10
F-6.0439235
ssVsouthwest
p11
(dp12
Vlat
p13
F53.22343009999999
sVlng
p14
F-6.4474847
sssVviewport
p15
(dp16
Vnortheast
p17
(dp18
Vlat
p19
F53.42521010000001
sVlng
p20
F-6.0439235
ssVsouthwest
p21
(dp22
Vlat
p23
F53.22343009999999
sVlng
p24
F-6.4474847
sssVlocation
p25
(dp26
Vlat
p27
F53.3498053
sVlng
p28
F-6.2603097
sssVformatted_address
p29
VDublin, Ireland
p30
sVplace_id
p31
VChIJL6wn6oAOZ0gRoHExl6nHAAo
p32
sVaddress_components
p33
(lp34
(dp35
Vlong_name
p36
VDublin
p37
sVtypes
p38
(lp39
Vlocality
p40
aVpolitical
p41
asVshort_name
p42
VDublin
p43
sa(dp44
Vlong_name
p45
VCounty Dublin
p46
sVtypes
p47
(lp48
Vadministrative_area_level_1
p49
aVpolitical
p50
asVshort_name
p51
VCounty Dublin
p52
sa(dp53
Vlong_name
p54
VIreland
p55
sVtypes
p56
(lp57
Vcountry
p58
aVpolitical
p59
asVshort_name
p60
VIE
p61
sasVpartial_match
p62
I01
sVtypes
p63
(lp64
Vlocality
p65
aVpolitical
p66
as.