(dp0
Vgeometry
p1
(dp2
Vlocation
p3
(dp4
Vlat
p5
F43.66475579999999
sVlng
p6
F-79.3242952
ssVviewport
p7
(dp8
Vnortheast
p9
(dp10
Vlat
p11
F43.66610478029149
sVlng
p12
F-79.32294621970848
ssVsouthwest
p13
(dp14
Vlat
p15
F43.66340681970849
sVlng
p16
F-79.3256441802915
sssVlocation_type
p17
VROOFTOP
p18
ssVaddress_components
p19
(lp20
(dp21
Vlong_name
p22
Vc3
p23
sVtypes
p24
(lp25
Vsubpremise
p26
asVshort_name
p27
Vc3
p28
sa(dp29
Vlong_name
p30
V1402
p31
sVtypes
p32
(lp33
Vstreet_number
p34
asVshort_name
p35
V1402
p36
sa(dp37
Vlong_name
p38
VQueen Street East
p39
sVtypes
p40
(lp41
Vroute
p42
asVshort_name
p43
VQueen St E
p44
sa(dp45
Vlong_name
p46
VOld Toronto
p47
sVtypes
p48
(lp49
Vpolitical
p50
aVsublocality
p51
aVsublocality_level_1
p52
asVshort_name
p53
VOld Toronto
p54
sa(dp55
Vlong_name
p56
VToronto
p57
sVtypes
p58
(lp59
Vlocality
p60
aVpolitical
p61
asVshort_name
p62
VToronto
p63
sa(dp64
Vlong_name
p65
VToronto Division
p66
sVtypes
p67
(lp68
Vadministrative_area_level_2
p69
aVpolitical
p70
asVshort_name
p71
VToronto Division
p72
sa(dp73
Vlong_name
p74
VOntario
p75
sVtypes
p76
(lp77
Vadministrative_area_level_1
p78
aVpolitical
p79
asVshort_name
p80
VON
p81
sa(dp82
Vlong_name
p83
VCanada
p84
sVtypes
p85
(lp86
Vcountry
p87
aVpolitical
p88
asVshort_name
p89
VCA
p90
sa(dp91
Vlong_name
p92
VM4L 1C9
p93
sVtypes
p94
(lp95
Vpostal_code
p96
asVshort_name
p97
VM4L 1C9
p98
sasVplace_id
p99
VChIJieUYfIXL1IkRTwVaKeBI_jE
p100
sVformatted_address
p101
V1402 Queen St E c3, Toronto, ON M4L 1C9, Canada
p102
sVtypes
p103
(lp104
Vestablishment
p105
aVpoint_of_interest
p106
as.