(dp0
Vgeometry
p1
(dp2
Vlocation
p3
(dp4
Vlat
p5
F-37.8157341
sVlng
p6
F144.9704101
ssVviewport
p7
(dp8
Vnortheast
p9
(dp10
Vlat
p11
F-37.8143851197085
sVlng
p12
F144.9717590802915
ssVsouthwest
p13
(dp14
Vlat
p15
F-37.8170830802915
sVlng
p16
F144.9690611197085
sssVlocation_type
p17
VROOFTOP
p18
ssVaddress_components
p19
(lp20
(dp21
Vlong_name
p22
V125
p23
sVtypes
p24
(lp25
Vstreet_number
p26
asVshort_name
p27
V125
p28
sa(dp29
Vlong_name
p30
VFlinders Lane
p31
sVtypes
p32
(lp33
Vroute
p34
asVshort_name
p35
VFlinders Ln
p36
sa(dp37
Vlong_name
p38
VMelbourne
p39
sVtypes
p40
(lp41
Vlocality
p42
aVpolitical
p43
asVshort_name
p44
VMelbourne
p45
sa(dp46
Vlong_name
p47
VMelbourne City
p48
sVtypes
p49
(lp50
Vadministrative_area_level_2
p51
aVpolitical
p52
asVshort_name
p53
VMelbourne
p54
sa(dp55
Vlong_name
p56
VVictoria
p57
sVtypes
p58
(lp59
Vadministrative_area_level_1
p60
aVpolitical
p61
asVshort_name
p62
VVIC
p63
sa(dp64
Vlong_name
p65
VAustralia
p66
sVtypes
p67
(lp68
Vcountry
p69
aVpolitical
p70
asVshort_name
p71
VAU
p72
sa(dp73
Vlong_name
p74
V3000
p75
sVtypes
p76
(lp77
Vpostal_code
p78
asVshort_name
p79
V3000
p80
sasVplace_id
p81
VChIJCcOJ27dC1moROAfagkfQfEI
p82
sVformatted_address
p83
V125 Flinders Ln, Melbourne VIC 3000, Australia
p84
sVtypes
p85
(lp86
Vbar
p87
aVestablishment
p88
aVpoint_of_interest
p89
as.