(dp0
Vgeometry
p1
(dp2
Vlocation_type
p3
VAPPROXIMATE
p4
sVbounds
p5
(dp6
Vnortheast
p7
(dp8
Vlat
p9
F45.5278925
sVlng
p10
F-73.5902224
ssVsouthwest
p11
(dp12
Vlat
p13
F45.503858
sVlng
p14
F-73.62666159999999
sssVviewport
p15
(dp16
Vnortheast
p17
(dp18
Vlat
p19
F45.5278925
sVlng
p20
F-73.5902224
ssVsouthwest
p21
(dp22
Vlat
p23
F45.503858
sVlng
p24
F-73.62666159999999
sssVlocation
p25
(dp26
Vlat
p27
F45.5142856
sVlng
p28
F-73.60901129999999
sssVformatted_address
p29
VOutremont, Montreal, QC, Canada
p30
sVplace_id
p31
VChIJ4_1zYIQZyUwRFZqRrQUODXw
p32
sVaddress_components
p33
(lp34
(dp35
Vlong_name
p36
VOutremont
p37
sVtypes
p38
(lp39
Vpolitical
p40
aVsublocality
p41
aVsublocality_level_1
p42
asVshort_name
p43
VOutremont
p44
sa(dp45
Vlong_name
p46
VMontreal
p47
sVtypes
p48
(lp49
Vlocality
p50
aVpolitical
p51
asVshort_name
p52
VMontreal
p53
sa(dp54
Vlong_name
p55
VMontreal
p56
sVtypes
p57
(lp58
Vadministrative_area_level_2
p59
aVpolitical
p60
asVshort_name
p61
VMontreal
p62
sa(dp63
Vlong_name
p64
VQuebec
p65
sVtypes
p66
(lp67
Vadministrative_area_level_1
p68
aVpolitical
p69
asVshort_name
p70
VQC
p71
sa(dp72
Vlong_name
p73
VCanada
p74
sVtypes
p75
(lp76
Vcountry
p77
aVpolitical
p78
asVshort_name
p79
VCA
p80
sasVpartial_match
p81
I01
sVtypes
p82
(lp83
Vpolitical
p84
aVsublocality
p85
aVsublocality_level_1
p86
as.