(dp0
Vgeometry
p1
(dp2
Vlocation_type
p3
VGEOMETRIC_CENTER
p4
sVbounds
p5
(dp6
Vnortheast
p7
(dp8
Vlat
p9
F34.0317016
sVlng
p10
F-118.1819165
ssVsouthwest
p11
(dp12
Vlat
p13
F34.0156838
sVlng
p14
F-118.1831644
sssVviewport
p15
(dp16
Vnortheast
p17
(dp18
Vlat
p19
F34.0317016
sVlng
p20
F-118.1811914697085
ssVsouthwest
p21
(dp22
Vlat
p23
F34.0156838
sVlng
p24
F-118.1838894302915
sssVlocation
p25
(dp26
Vlat
p27
F34.0239318
sVlng
p28
F-118.1826738
sssVformatted_address
p29
VS Record Ave, Los Angeles, CA, USA
p30
sVplace_id
p31
VChIJ8_TGIEDPwoARt5dkbXOQZ7g
p32
sVaddress_components
p33
(lp34
(dp35
Vlong_name
p36
VSouth Record Avenue
p37
sVtypes
p38
(lp39
Vroute
p40
asVshort_name
p41
VS Record Ave
p42
sa(dp43
Vlong_name
p44
VLos Angeles
p45
sVtypes
p46
(lp47
Vlocality
p48
aVpolitical
p49
asVshort_name
p50
VLos Angeles
p51
sa(dp52
Vlong_name
p53
VLos Angeles County
p54
sVtypes
p55
(lp56
Vadministrative_area_level_2
p57
aVpolitical
p58
asVshort_name
p59
VLos Angeles County
p60
sa(dp61
Vlong_name
p62
VCalifornia
p63
sVtypes
p64
(lp65
Vadministrative_area_level_1
p66
aVpolitical
p67
asVshort_name
p68
VCA
p69
sa(dp70
Vlong_name
p71
VUnited States
p72
sVtypes
p73
(lp74
Vcountry
p75
aVpolitical
p76
asVshort_name
p77
VUS
p78
sasVpartial_match
p79
I01
sVtypes
p80
(lp81
Vroute
p82
as.