(dp0
Vgeometry
p1
(dp2
Vlocation_type
p3
VAPPROXIMATE
p4
sVbounds
p5
(dp6
Vnortheast
p7
(dp8
Vlat
p9
F39.204733
sVlng
p10
F-78.1369529
ssVsouthwest
p11
(dp12
Vlat
p13
F39.13097
sVlng
p14
F-78.200731
sssVviewport
p15
(dp16
Vnortheast
p17
(dp18
Vlat
p19
F39.204733
sVlng
p20
F-78.1369529
ssVsouthwest
p21
(dp22
Vlat
p23
F39.13097
sVlng
p24
F-78.200731
sssVlocation
p25
(dp26
Vlat
p27
F39.1856597
sVlng
p28
F-78.1633341
sssVformatted_address
p29
VWinchester, VA 22601, USA
p30
sVplace_id
p31
VChIJwUpnQPfutYkRhIEWnA8KtZE
p32
sVaddress_components
p33
(lp34
(dp35
Vlong_name
p36
VWinchester
p37
sVtypes
p38
(lp39
Vlocality
p40
aVpolitical
p41
asVshort_name
p42
VWinchester
p43
sa(dp44
Vlong_name
p45
VVirginia
p46
sVtypes
p47
(lp48
Vadministrative_area_level_1
p49
aVpolitical
p50
asVshort_name
p51
VVA
p52
sa(dp53
Vlong_name
p54
VUnited States
p55
sVtypes
p56
(lp57
Vcountry
p58
aVpolitical
p59
asVshort_name
p60
VUS
p61
sa(dp62
Vlong_name
p63
V22601
p64
sVtypes
p65
(lp66
Vpostal_code
p67
asVshort_name
p68
V22601
p69
sasVpartial_match
p70
I01
sVtypes
p71
(lp72
Vlocality
p73
aVpolitical
p74
as.