(dp0
Vgeometry
p1
(dp2
Vlocation
p3
(dp4
Vlat
p5
F40.4326817
sVlng
p6
F-79.92326229999999
ssVviewport
p7
(dp8
Vnortheast
p9
(dp10
Vlat
p11
F40.4340306802915
sVlng
p12
F-79.9219133197085
ssVsouthwest
p13
(dp14
Vlat
p15
F40.4313327197085
sVlng
p16
F-79.9246112802915
sssVlocation_type
p17
VROOFTOP
p18
ssVaddress_components
p19
(lp20
(dp21
Vlong_name
p22
V2
p23
sVtypes
p24
(lp25
Vfloor
p26
asVshort_name
p27
g23
sa(dp28
Vlong_name
p29
V2136
p30
sVtypes
p31
(lp32
Vstreet_number
p33
asVshort_name
p34
V2136
p35
sa(dp36
Vlong_name
p37
VMurray Avenue
p38
sVtypes
p39
(lp40
Vroute
p41
asVshort_name
p42
VMurray Ave
p43
sa(dp44
Vlong_name
p45
VSquirrel Hill South
p46
sVtypes
p47
(lp48
Vneighborhood
p49
aVpolitical
p50
asVshort_name
p51
VSquirrel Hill South
p52
sa(dp53
Vlong_name
p54
VPittsburgh
p55
sVtypes
p56
(lp57
Vlocality
p58
aVpolitical
p59
asVshort_name
p60
VPittsburgh
p61
sa(dp62
Vlong_name
p63
VAllegheny County
p64
sVtypes
p65
(lp66
Vadministrative_area_level_2
p67
aVpolitical
p68
asVshort_name
p69
VAllegheny County
p70
sa(dp71
Vlong_name
p72
VPennsylvania
p73
sVtypes
p74
(lp75
Vadministrative_area_level_1
p76
aVpolitical
p77
asVshort_name
p78
VPA
p79
sa(dp80
Vlong_name
p81
VUnited States
p82
sVtypes
p83
(lp84
Vcountry
p85
aVpolitical
p86
asVshort_name
p87
VUS
p88
sa(dp89
Vlong_name
p90
V15217
p91
sVtypes
p92
(lp93
Vpostal_code
p94
asVshort_name
p95
V15217
p96
sasVplace_id
p97
VChIJ25xLnv7xNIgRRB2eQjmICX0
p98
sVformatted_address
p99
V2, 2136 Murray Ave, Pittsburgh, PA 15217, USA
p100
sVtypes
p101
(lp102
Velectronics_store
p103
aVestablishment
p104
aVhome_goods_store
p105
aVpoint_of_interest
p106
aVstore
p107
as.