(dp0
Vgeometry
p1
(dp2
Vlocation
p3
(dp4
Vlat
p5
F41.404415
sVlng
p6
F2.159899
ssVviewport
p7
(dp8
Vnortheast
p9
(dp10
Vlat
p11
F41.4057639802915
sVlng
p12
F2.161247980291502
ssVsouthwest
p13
(dp14
Vlat
p15
F41.4030660197085
sVlng
p16
F2.158550019708498
sssVlocation_type
p17
VROOFTOP
p18
ssVaddress_components
p19
(lp20
(dp21
Vlong_name
p22
V25
p23
sVtypes
p24
(lp25
Vstreet_number
p26
asVshort_name
p27
V25
p28
sa(dp29
Vlong_name
p30
VCarrer de Montmany
p31
sVtypes
p32
(lp33
Vroute
p34
asVshort_name
p35
VCarrer de Montmany
p36
sa(dp37
Vlong_name
p38
VBarcelona
p39
sVtypes
p40
(lp41
Vlocality
p42
aVpolitical
p43
asVshort_name
p44
VBarcelona
p45
sa(dp46
Vlong_name
p47
VBarcelona
p48
sVtypes
p49
(lp50
Vadministrative_area_level_2
p51
aVpolitical
p52
asVshort_name
p53
VBarcelona
p54
sa(dp55
Vlong_name
p56
VCatalunya
p57
sVtypes
p58
(lp59
Vadministrative_area_level_1
p60
aVpolitical
p61
asVshort_name
p62
VCT
p63
sa(dp64
Vlong_name
p65
VSpain
p66
sVtypes
p67
(lp68
Vcountry
p69
aVpolitical
p70
asVshort_name
p71
VES
p72
sa(dp73
Vlong_name
p74
V08012
p75
sVtypes
p76
(lp77
Vpostal_code
p78
asVshort_name
p79
V08012
p80
sasVplace_id
p81
VChIJz0HMnb6ipBIRuArshaMct_E
p82
sVformatted_address
p83
VCarrer de Montmany, 25, 08012 Barcelona, Spain
p84
sVtypes
p85
(lp86
Velectronics_store
p87
aVestablishment
p88
aVhome_goods_store
p89
aVpoint_of_interest
p90
aVstore
p91
as.