(dp0
Vgeometry
p1
(dp2
Vlocation
p3
(dp4
Vlat
p5
F32.9905242
sVlng
p6
F-117.2704994
ssVviewport
p7
(dp8
Vnortheast
p9
(dp10
Vlat
p11
F32.9918731802915
sVlng
p12
F-117.2691504197085
ssVsouthwest
p13
(dp14
Vlat
p15
F32.9891752197085
sVlng
p16
F-117.2718483802915
sssVlocation_type
p17
VROOFTOP
p18
ssVaddress_components
p19
(lp20
(dp21
Vlong_name
p22
V143
p23
sVtypes
p24
(lp25
Vstreet_number
p26
asVshort_name
p27
V143
p28
sa(dp29
Vlong_name
p30
VSouth Cedros Avenue
p31
sVtypes
p32
(lp33
Vroute
p34
asVshort_name
p35
VS Cedros Ave
p36
sa(dp37
Vlong_name
p38
VSolana Beach
p39
sVtypes
p40
(lp41
Vlocality
p42
aVpolitical
p43
asVshort_name
p44
VSolana Beach
p45
sa(dp46
Vlong_name
p47
VSan Diego County
p48
sVtypes
p49
(lp50
Vadministrative_area_level_2
p51
aVpolitical
p52
asVshort_name
p53
VSan Diego County
p54
sa(dp55
Vlong_name
p56
VCalifornia
p57
sVtypes
p58
(lp59
Vadministrative_area_level_1
p60
aVpolitical
p61
asVshort_name
p62
VCA
p63
sa(dp64
Vlong_name
p65
VUnited States
p66
sVtypes
p67
(lp68
Vcountry
p69
aVpolitical
p70
asVshort_name
p71
VUS
p72
sa(dp73
Vlong_name
p74
V92075
p75
sVtypes
p76
(lp77
Vpostal_code
p78
asVshort_name
p79
V92075
p80
sa(dp81
Vlong_name
p82
V1963
p83
sVtypes
p84
(lp85
Vpostal_code_suffix
p86
asVshort_name
p87
V1963
p88
sasVplace_id
p89
VChIJz_479dIO3IARSSMZDsd_eH8
p90
sVformatted_address
p91
V143 S Cedros Ave, Solana Beach, CA 92075, USA
p92
sVtypes
p93
(lp94
Vbar
p95
aVestablishment
p96
aVnight_club
p97
aVpoint_of_interest
p98
as.