(dp0
Vgeometry
p1
(dp2
Vlocation
p3
(dp4
Vlat
p5
F41.9536577
sVlng
p6
F-87.70463099999999
ssVviewport
p7
(dp8
Vnortheast
p9
(dp10
Vlat
p11
F41.9550066802915
sVlng
p12
F-87.70328201970848
ssVsouthwest
p13
(dp14
Vlat
p15
F41.9523087197085
sVlng
p16
F-87.7059799802915
sssVlocation_type
p17
VROOFTOP
p18
ssVaddress_components
p19
(lp20
(dp21
Vlong_name
p22
V3039
p23
sVtypes
p24
(lp25
Vstreet_number
p26
asVshort_name
p27
V3039
p28
sa(dp29
Vlong_name
p30
VWest Irving Park Road
p31
sVtypes
p32
(lp33
Vroute
p34
asVshort_name
p35
VW Irving Park Rd
p36
sa(dp37
Vlong_name
p38
VIrving Park
p39
sVtypes
p40
(lp41
Vneighborhood
p42
aVpolitical
p43
asVshort_name
p44
VIrving Park
p45
sa(dp46
Vlong_name
p47
VChicago
p48
sVtypes
p49
(lp50
Vlocality
p51
aVpolitical
p52
asVshort_name
p53
VChicago
p54
sa(dp55
Vlong_name
p56
VCook County
p57
sVtypes
p58
(lp59
Vadministrative_area_level_2
p60
aVpolitical
p61
asVshort_name
p62
VCook County
p63
sa(dp64
Vlong_name
p65
VIllinois
p66
sVtypes
p67
(lp68
Vadministrative_area_level_1
p69
aVpolitical
p70
asVshort_name
p71
VIL
p72
sa(dp73
Vlong_name
p74
VUnited States
p75
sVtypes
p76
(lp77
Vcountry
p78
aVpolitical
p79
asVshort_name
p80
VUS
p81
sa(dp82
Vlong_name
p83
V60618
p84
sVtypes
p85
(lp86
Vpostal_code
p87
asVshort_name
p88
V60618
p89
sasVplace_id
p90
VChIJ60NT_4zND4gR06JttLv4WiU
p91
sVformatted_address
p92
V3039 W Irving Park Rd, Chicago, IL 60618, USA
p93
sVtypes
p94
(lp95
Velectronics_store
p96
aVestablishment
p97
aVhome_goods_store
p98
aVpoint_of_interest
p99
aVstore
p100
as.