(dp0
Vgeometry
p1
(dp2
Vlocation_type
p3
VAPPROXIMATE
p4
sVbounds
p5
(dp6
Vnortheast
p7
(dp8
Vlat
p9
F43.8554447
sVlng
p10
F-79.1161286
ssVsouthwest
p11
(dp12
Vlat
p13
F43.671154
sVlng
p14
F-79.341341
sssVviewport
p15
(dp16
Vnortheast
p17
(dp18
Vlat
p19
F43.8554447
sVlng
p20
F-79.1161286
ssVsouthwest
p21
(dp22
Vlat
p23
F43.671154
sVlng
p24
F-79.341341
sssVlocation
p25
(dp26
Vlat
p27
F43.7764258
sVlng
p28
F-79.2317521
sssVformatted_address
p29
VScarborough, Toronto, ON, Canada
p30
sVplace_id
p31
VChIJCbZmnl7Q1IkRe4BHJM5jbvA
p32
sVaddress_components
p33
(lp34
(dp35
Vlong_name
p36
VScarborough
p37
sVtypes
p38
(lp39
Vlocality
p40
aVpolitical
p41
aVsublocality
p42
aVsublocality_level_1
p43
asVshort_name
p44
VScarborough
p45
sa(dp46
Vlong_name
p47
VToronto
p48
sVtypes
p49
(lp50
Vlocality
p51
aVpolitical
p52
asVshort_name
p53
VToronto
p54
sa(dp55
Vlong_name
p56
VToronto Division
p57
sVtypes
p58
(lp59
Vadministrative_area_level_2
p60
aVpolitical
p61
asVshort_name
p62
VToronto Division
p63
sa(dp64
Vlong_name
p65
VOntario
p66
sVtypes
p67
(lp68
Vadministrative_area_level_1
p69
aVpolitical
p70
asVshort_name
p71
VON
p72
sa(dp73
Vlong_name
p74
VCanada
p75
sVtypes
p76
(lp77
Vcountry
p78
aVpolitical
p79
asVshort_name
p80
VCA
p81
sasVpartial_match
p82
I01
sVtypes
p83
(lp84
Vlocality
p85
aVpolitical
p86
aVsublocality
p87
aVsublocality_level_1
p88
as.