(dp0
Vgeometry
p1
(dp2
Vlocation
p3
(dp4
Vlat
p5
F37.647321
sVlng
p6
F-122.4170997
ssVviewport
p7
(dp8
Vnortheast
p9
(dp10
Vlat
p11
F37.64866998029149
sVlng
p12
F-122.4157507197085
ssVsouthwest
p13
(dp14
Vlat
p15
F37.6459720197085
sVlng
p16
F-122.4184486802915
sssVlocation_type
p17
VROOFTOP
p18
ssVaddress_components
p19
(lp20
(dp21
Vlong_name
p22
V441
p23
sVtypes
p24
(lp25
Vstreet_number
p26
asVshort_name
p27
V441
p28
sa(dp29
Vlong_name
p30
VVictory Avenue
p31
sVtypes
p32
(lp33
Vroute
p34
asVshort_name
p35
VVictory Ave
p36
sa(dp37
Vlong_name
p38
VLindenville
p39
sVtypes
p40
(lp41
Vneighborhood
p42
aVpolitical
p43
asVshort_name
p44
VLindenville
p45
sa(dp46
Vlong_name
p47
VSouth San Francisco
p48
sVtypes
p49
(lp50
Vlocality
p51
aVpolitical
p52
asVshort_name
p53
VSouth San Francisco
p54
sa(dp55
Vlong_name
p56
VSan Mateo County
p57
sVtypes
p58
(lp59
Vadministrative_area_level_2
p60
aVpolitical
p61
asVshort_name
p62
VSan Mateo County
p63
sa(dp64
Vlong_name
p65
VCalifornia
p66
sVtypes
p67
(lp68
Vadministrative_area_level_1
p69
aVpolitical
p70
asVshort_name
p71
VCA
p72
sa(dp73
Vlong_name
p74
VUnited States
p75
sVtypes
p76
(lp77
Vcountry
p78
aVpolitical
p79
asVshort_name
p80
VUS
p81
sa(dp82
Vlong_name
p83
V94080
p84
sVtypes
p85
(lp86
Vpostal_code
p87
asVshort_name
p88
V94080
p89
sa(dp90
Vlong_name
p91
V6312
p92
sVtypes
p93
(lp94
Vpostal_code_suffix
p95
asVshort_name
p96
V6312
p97
sasVplace_id
p98
VChIJDdDwa7t5j4ARhZONLVl-Bwc
p99
sVformatted_address
p100
V441 Victory Ave, South San Francisco, CA 94080, USA
p101
sVtypes
p102
(lp103
Velectronics_store
p104
aVestablishment
p105
aVhome_goods_store
p106
aVpoint_of_interest
p107
aVstore
p108
as.