(dp0
Vgeometry
p1
(dp2
Vlocation
p3
(dp4
Vlat
p5
F44.852313
sVlng
p6
F-93.56348
ssVviewport
p7
(dp8
Vnortheast
p9
(dp10
Vlat
p11
F44.85366198029149
sVlng
p12
F-93.5621310197085
ssVsouthwest
p13
(dp14
Vlat
p15
F44.8509640197085
sVlng
p16
F-93.56482898029151
sssVlocation_type
p17
VROOFTOP
p18
ssVaddress_components
p19
(lp20
(dp21
Vlong_name
p22
V1660
p23
sVtypes
p24
(lp25
Vstreet_number
p26
asVshort_name
p27
V1660
p28
sa(dp29
Vlong_name
p30
VLake Drive West
p31
sVtypes
p32
(lp33
Vroute
p34
asVshort_name
p35
VLake Dr W
p36
sa(dp37
Vlong_name
p38
VChanhassen
p39
sVtypes
p40
(lp41
Vlocality
p42
aVpolitical
p43
asVshort_name
p44
VChanhassen
p45
sa(dp46
Vlong_name
p47
VCarver County
p48
sVtypes
p49
(lp50
Vadministrative_area_level_2
p51
aVpolitical
p52
asVshort_name
p53
VCarver County
p54
sa(dp55
Vlong_name
p56
VMinnesota
p57
sVtypes
p58
(lp59
Vadministrative_area_level_1
p60
aVpolitical
p61
asVshort_name
p62
VMN
p63
sa(dp64
Vlong_name
p65
VUnited States
p66
sVtypes
p67
(lp68
Vcountry
p69
aVpolitical
p70
asVshort_name
p71
VUS
p72
sa(dp73
Vlong_name
p74
V55317
p75
sVtypes
p76
(lp77
Vpostal_code
p78
asVshort_name
p79
V55317
p80
sa(dp81
Vlong_name
p82
V8583
p83
sVtypes
p84
(lp85
Vpostal_code_suffix
p86
asVshort_name
p87
V8583
p88
sasVplace_id
p89
VChIJV231HEAb9ocRWU8Wu4bG88E
p90
sVformatted_address
p91
V1660 Lake Dr W, Chanhassen, MN 55317, USA
p92
sVtypes
p93
(lp94
Velectronics_store
p95
aVestablishment
p96
aVhome_goods_store
p97
aVpoint_of_interest
p98
aVstore
p99
as.