(dp0
Vgeometry
p1
(dp2
Vlocation
p3
(dp4
Vlat
p5
F52.3646324
sVlng
p6
F4.8824759
ssVviewport
p7
(dp8
Vnortheast
p9
(dp10
Vlat
p11
F52.3659813802915
sVlng
p12
F4.883824880291503
ssVsouthwest
p13
(dp14
Vlat
p15
F52.3632834197085
sVlng
p16
F4.881126919708498
sssVlocation_type
p17
VROOFTOP
p18
ssVaddress_components
p19
(lp20
(dp21
Vlong_name
p22
V12
p23
sVtypes
p24
(lp25
Vstreet_number
p26
asVshort_name
p27
V12
p28
sa(dp29
Vlong_name
p30
VKorte Leidsedwarsstraat
p31
sVtypes
p32
(lp33
Vroute
p34
asVshort_name
p35
VKorte Leidsedwarsstraat
p36
sa(dp37
Vlong_name
p38
VAmsterdam-Centrum
p39
sVtypes
p40
(lp41
Vpolitical
p42
aVsublocality
p43
aVsublocality_level_1
p44
asVshort_name
p45
VAmsterdam-Centrum
p46
sa(dp47
Vlong_name
p48
VAmsterdam
p49
sVtypes
p50
(lp51
Vlocality
p52
aVpolitical
p53
asVshort_name
p54
VAmsterdam
p55
sa(dp56
Vlong_name
p57
VAmsterdam
p58
sVtypes
p59
(lp60
Vadministrative_area_level_2
p61
aVpolitical
p62
asVshort_name
p63
VAmsterdam
p64
sa(dp65
Vlong_name
p66
VNoord-Holland
p67
sVtypes
p68
(lp69
Vadministrative_area_level_1
p70
aVpolitical
p71
asVshort_name
p72
VNH
p73
sa(dp74
Vlong_name
p75
VNetherlands
p76
sVtypes
p77
(lp78
Vcountry
p79
aVpolitical
p80
asVshort_name
p81
VNL
p82
sa(dp83
Vlong_name
p84
V1017 RC
p85
sVtypes
p86
(lp87
Vpostal_code
p88
asVshort_name
p89
V1017 RC
p90
sasVplace_id
p91
VChIJNxZ5YOgJxkcRb9z0KmY9Hq0
p92
sVformatted_address
p93
VKorte Leidsedwarsstraat 12, 1017 RC Amsterdam, Netherlands
p94
sVtypes
p95
(lp96
Vestablishment
p97
aVpoint_of_interest
p98
as.