(dp0
Vgeometry
p1
(dp2
Vlocation
p3
(dp4
Vlat
p5
F26.0215029
sVlng
p6
F-80.1164466
ssVviewport
p7
(dp8
Vnortheast
p9
(dp10
Vlat
p11
F26.0228518802915
sVlng
p12
F-80.11509761970851
ssVsouthwest
p13
(dp14
Vlat
p15
F26.02015391970849
sVlng
p16
F-80.11779558029151
sssVlocation_type
p17
VROOFTOP
p18
ssVaddress_components
p19
(lp20
(dp21
Vlong_name
p22
V1515
p23
sVtypes
p24
(lp25
Vstreet_number
p26
asVshort_name
p27
V1515
p28
sa(dp29
Vlong_name
p30
VNorth Ocean Drive
p31
sVtypes
p32
(lp33
Vroute
p34
asVshort_name
p35
VN Ocean Dr
p36
sa(dp37
Vlong_name
p38
VHollywood Beach
p39
sVtypes
p40
(lp41
Vneighborhood
p42
aVpolitical
p43
asVshort_name
p44
VHollywood Beach
p45
sa(dp46
Vlong_name
p47
VHollywood
p48
sVtypes
p49
(lp50
Vlocality
p51
aVpolitical
p52
asVshort_name
p53
VHollywood
p54
sa(dp55
Vlong_name
p56
VBroward County
p57
sVtypes
p58
(lp59
Vadministrative_area_level_2
p60
aVpolitical
p61
asVshort_name
p62
VBroward County
p63
sa(dp64
Vlong_name
p65
VFlorida
p66
sVtypes
p67
(lp68
Vadministrative_area_level_1
p69
aVpolitical
p70
asVshort_name
p71
VFL
p72
sa(dp73
Vlong_name
p74
VUnited States
p75
sVtypes
p76
(lp77
Vcountry
p78
aVpolitical
p79
asVshort_name
p80
VUS
p81
sa(dp82
Vlong_name
p83
V33019
p84
sVtypes
p85
(lp86
Vpostal_code
p87
asVshort_name
p88
V33019
p89
sasVplace_id
p90
VChIJ4WKNNiOr2YgRCaubbj_gbLk
p91
sVformatted_address
p92
V1515 N Ocean Dr, Hollywood, FL 33019, USA
p93
sVtypes
p94
(lp95
Vestablishment
p96
aVlodging
p97
aVpoint_of_interest
p98
as.