(dp0
Vgeometry
p1
(dp2
Vlocation
p3
(dp4
Vlat
p5
F1.3644202
sVlng
p6
F103.9915308
ssVviewport
p7
(dp8
Vnortheast
p9
(dp10
Vlat
p11
F1.365769180291502
sVlng
p12
F103.9928797802915
ssVsouthwest
p13
(dp14
Vlat
p15
F1.363071219708498
sVlng
p16
F103.9901818197085
sssVlocation_type
p17
VGEOMETRIC_CENTER
p18
ssVformatted_address
p19
VAirport Blvd, Changi Airport Singapore (SIN), Singapore
p20
sVplace_id
p21
VChIJ483Qk9YX2jERA0VOQV7d1tY
p22
sVaddress_components
p23
(lp24
(dp25
Vlong_name
p26
VChangi Airport Singapore
p27
sVtypes
p28
(lp29
Vairport
p30
aVestablishment
p31
aVpoint_of_interest
p32
asVshort_name
p33
VChangi Airport Singapore
p34
sa(dp35
Vlong_name
p36
VAirport Boulevard
p37
sVtypes
p38
(lp39
Vroute
p40
asVshort_name
p41
VAirport Blvd
p42
sa(dp43
Vlong_name
p44
VChangi
p45
sVtypes
p46
(lp47
Vneighborhood
p48
aVpolitical
p49
asVshort_name
p50
VChangi
p51
sa(dp52
Vlong_name
p53
VSingapore
p54
sVtypes
p55
(lp56
Vlocality
p57
aVpolitical
p58
asVshort_name
p59
VSingapore
p60
sa(dp61
Vlong_name
p62
VSingapore
p63
sVtypes
p64
(lp65
Vcountry
p66
aVpolitical
p67
asVshort_name
p68
VSG
p69
sasVpartial_match
p70
I01
sVtypes
p71
(lp72
Vairport
p73
aVestablishment
p74
aVpoint_of_interest
p75
as.