(dp0
Vgeometry
p1
(dp2
Vlocation_type
p3
VAPPROXIMATE
p4
sVbounds
p5
(dp6
Vnortheast
p7
(dp8
Vlat
p9
F-37.5112737
sVlng
p10
F145.5125288
ssVsouthwest
p11
(dp12
Vlat
p13
F-38.4338593
sVlng
p14
F144.5937418
sssVviewport
p15
(dp16
Vnortheast
p17
(dp18
Vlat
p19
F-37.5112737
sVlng
p20
F145.5125288
ssVsouthwest
p21
(dp22
Vlat
p23
F-38.4338593
sVlng
p24
F144.5937418
sssVlocation
p25
(dp26
Vlat
p27
F-37.8136276
sVlng
p28
F144.9630576
sssVformatted_address
p29
VMelbourne VIC, Australia
p30
sVplace_id
p31
VChIJ90260rVG1moRkM2MIXVWBAQ
p32
sVaddress_components
p33
(lp34
(dp35
Vlong_name
p36
VMelbourne
p37
sVtypes
p38
(lp39
Vcolloquial_area
p40
aVlocality
p41
aVpolitical
p42
asVshort_name
p43
VMelbourne
p44
sa(dp45
Vlong_name
p46
VVictoria
p47
sVtypes
p48
(lp49
Vadministrative_area_level_1
p50
aVpolitical
p51
asVshort_name
p52
VVIC
p53
sa(dp54
Vlong_name
p55
VAustralia
p56
sVtypes
p57
(lp58
Vcountry
p59
aVpolitical
p60
asVshort_name
p61
VAU
p62
sasVpartial_match
p63
I01
sVtypes
p64
(lp65
Vcolloquial_area
p66
aVlocality
p67
aVpolitical
p68
as.