(dp0
Vgeometry
p1
(dp2
Vlocation
p3
(dp4
Vlat
p5
F51.4387266
sVlng
p6
F0.0051803
ssVviewport
p7
(dp8
Vnortheast
p9
(dp10
Vlat
p11
F51.44007558029149
sVlng
p12
F0.006529280291502029
ssVsouthwest
p13
(dp14
Vlat
p15
F51.43737761970849
sVlng
p16
F0.00383131970849797
sssVlocation_type
p17
VROOFTOP
p18
ssVaddress_components
p19
(lp20
(dp21
Vlong_name
p22
V196-200
p23
sVtypes
p24
(lp25
Vstreet_number
p26
asVshort_name
p27
V196-200
p28
sa(dp29
Vlong_name
p30
VVerdant Lane
p31
sVtypes
p32
(lp33
Vroute
p34
asVshort_name
p35
VVerdant Ln
p36
sa(dp37
Vlong_name
p38
VLondon
p39
sVtypes
p40
(lp41
Vpostal_town
p42
asVshort_name
p43
VLondon
p44
sa(dp45
Vlong_name
p46
VGreater London
p47
sVtypes
p48
(lp49
Vadministrative_area_level_2
p50
aVpolitical
p51
asVshort_name
p52
VGreater London
p53
sa(dp54
Vlong_name
p55
VEngland
p56
sVtypes
p57
(lp58
Vadministrative_area_level_1
p59
aVpolitical
p60
asVshort_name
p61
VEngland
p62
sa(dp63
Vlong_name
p64
VUnited Kingdom
p65
sVtypes
p66
(lp67
Vcountry
p68
aVpolitical
p69
asVshort_name
p70
VGB
p71
sa(dp72
Vlong_name
p73
VSE6 1LJ
p74
sVtypes
p75
(lp76
Vpostal_code
p77
asVshort_name
p78
VSE6 1LJ
p79
sasVplace_id
p80
VChIJg8E7ffyp2EcRAx6AxtqoyWA
p81
sVformatted_address
p82
V196-200 Verdant Ln, London SE6 1LJ, UK
p83
sVtypes
p84
(lp85
Vestablishment
p86
aVpoint_of_interest
p87
as.