(dp0
Vgeometry
p1
(dp2
Vlocation
p3
(dp4
Vlat
p5
F34.2648604
sVlng
p6
F-84.0574647
ssVviewport
p7
(dp8
Vnortheast
p9
(dp10
Vlat
p11
F34.2662093802915
sVlng
p12
F-84.05611571970849
ssVsouthwest
p13
(dp14
Vlat
p15
F34.2635114197085
sVlng
p16
F-84.05881368029151
sssVlocation_type
p17
VROOFTOP
p18
ssVaddress_components
p19
(lp20
(dp21
Vlong_name
p22
V4075
p23
sVtypes
p24
(lp25
Vstreet_number
p26
asVshort_name
p27
V4075
p28
sa(dp29
Vlong_name
p30
VMini Trail
p31
sVtypes
p32
(lp33
Vroute
p34
asVshort_name
p35
VMini Trail
p36
sa(dp37
Vlong_name
p38
VCumming
p39
sVtypes
p40
(lp41
Vlocality
p42
aVpolitical
p43
asVshort_name
p44
VCumming
p45
sa(dp46
Vlong_name
p47
VForsyth County
p48
sVtypes
p49
(lp50
Vadministrative_area_level_2
p51
aVpolitical
p52
asVshort_name
p53
VForsyth County
p54
sa(dp55
Vlong_name
p56
VGeorgia
p57
sVtypes
p58
(lp59
Vadministrative_area_level_1
p60
aVpolitical
p61
asVshort_name
p62
VGA
p63
sa(dp64
Vlong_name
p65
VUnited States
p66
sVtypes
p67
(lp68
Vcountry
p69
aVpolitical
p70
asVshort_name
p71
VUS
p72
sa(dp73
Vlong_name
p74
V30041
p75
sVtypes
p76
(lp77
Vpostal_code
p78
asVshort_name
p79
V30041
p80
sa(dp81
Vlong_name
p82
V8815
p83
sVtypes
p84
(lp85
Vpostal_code_suffix
p86
asVshort_name
p87
V8815
p88
sasVplace_id
p89
VChIJ_VgIiteO9YgRQepGFYU2xGM
p90
sVformatted_address
p91
V4075 Mini Trail, Cumming, GA 30041, USA
p92
sVtypes
p93
(lp94
Velectronics_store
p95
aVestablishment
p96
aVhome_goods_store
p97
aVpoint_of_interest
p98
aVstore
p99
as.