(dp0
Vgeometry
p1
(dp2
Vlocation
p3
(dp4
Vlat
p5
F40.7644963
sVlng
p6
F-73.9868899
ssVviewport
p7
(dp8
Vnortheast
p9
(dp10
Vlat
p11
F40.7658452802915
sVlng
p12
F-73.9855409197085
ssVsouthwest
p13
(dp14
Vlat
p15
F40.7631473197085
sVlng
p16
F-73.9882388802915
sssVlocation_type
p17
VROOFTOP
p18
ssVaddress_components
p19
(lp20
(dp21
Vlong_name
p22
V6
p23
sVtypes
p24
(lp25
Vsubpremise
p26
asVshort_name
p27
g23
sa(dp28
Vlong_name
p29
V355
p30
sVtypes
p31
(lp32
Vstreet_number
p33
asVshort_name
p34
V355
p35
sa(dp36
Vlong_name
p37
VWest 52nd Street
p38
sVtypes
p39
(lp40
Vroute
p41
asVshort_name
p42
VW 52nd St
p43
sa(dp44
Vlong_name
p45
VManhattan
p46
sVtypes
p47
(lp48
Vpolitical
p49
aVsublocality
p50
aVsublocality_level_1
p51
asVshort_name
p52
VManhattan
p53
sa(dp54
Vlong_name
p55
VNew York
p56
sVtypes
p57
(lp58
Vlocality
p59
aVpolitical
p60
asVshort_name
p61
VNew York
p62
sa(dp63
Vlong_name
p64
VNew York County
p65
sVtypes
p66
(lp67
Vadministrative_area_level_2
p68
aVpolitical
p69
asVshort_name
p70
VNew York County
p71
sa(dp72
Vlong_name
p73
VNew York
p74
sVtypes
p75
(lp76
Vadministrative_area_level_1
p77
aVpolitical
p78
asVshort_name
p79
VNY
p80
sa(dp81
Vlong_name
p82
VUnited States
p83
sVtypes
p84
(lp85
Vcountry
p86
aVpolitical
p87
asVshort_name
p88
VUS
p89
sa(dp90
Vlong_name
p91
V10019
p92
sVtypes
p93
(lp94
Vpostal_code
p95
asVshort_name
p96
V10019
p97
sa(dp98
Vlong_name
p99
V6239
p100
sVtypes
p101
(lp102
Vpostal_code_suffix
p103
asVshort_name
p104
V6239
p105
sasVplace_id
p106
VChIJ_xLebFdYwokRSklPFF65ERE
p107
sVformatted_address
p108
V355 W 52nd St #6, New York, NY 10019, USA
p109
sVtypes
p110
(lp111
Velectronics_store
p112
aVestablishment
p113
aVhome_goods_store
p114
aVpoint_of_interest
p115
aVstore
p116
as.