(dp0
Vgeometry
p1
(dp2
Vlocation
p3
(dp4
Vlat
p5
F40.224124
sVlng
p6
F-74.00633599999999
ssVviewport
p7
(dp8
Vnortheast
p9
(dp10
Vlat
p11
F40.22547298029149
sVlng
p12
F-74.00498701970848
ssVsouthwest
p13
(dp14
Vlat
p15
F40.22277501970849
sVlng
p16
F-74.0076849802915
sssVlocation_type
p17
VROOFTOP
p18
ssVaddress_components
p19
(lp20
(dp21
Vlong_name
p22
V505
p23
sVtypes
p24
(lp25
Vstreet_number
p26
asVshort_name
p27
V505
p28
sa(dp29
Vlong_name
p30
V4th Avenue
p31
sVtypes
p32
(lp33
Vroute
p34
asVshort_name
p35
V4th Ave
p36
sa(dp37
Vlong_name
p38
VAsbury Park
p39
sVtypes
p40
(lp41
Vlocality
p42
aVpolitical
p43
asVshort_name
p44
VAsbury Park
p45
sa(dp46
Vlong_name
p47
VMonmouth County
p48
sVtypes
p49
(lp50
Vadministrative_area_level_2
p51
aVpolitical
p52
asVshort_name
p53
VMonmouth County
p54
sa(dp55
Vlong_name
p56
VNew Jersey
p57
sVtypes
p58
(lp59
Vadministrative_area_level_1
p60
aVpolitical
p61
asVshort_name
p62
VNJ
p63
sa(dp64
Vlong_name
p65
VUnited States
p66
sVtypes
p67
(lp68
Vcountry
p69
aVpolitical
p70
asVshort_name
p71
VUS
p72
sa(dp73
Vlong_name
p74
V07712
p75
sVtypes
p76
(lp77
Vpostal_code
p78
asVshort_name
p79
V07712
p80
sa(dp81
Vlong_name
p82
V6009
p83
sVtypes
p84
(lp85
Vpostal_code_suffix
p86
asVshort_name
p87
V6009
p88
sasVplace_id
p89
VChIJZ1L4zGomwokRgOuCpRbgMWY
p90
sVformatted_address
p91
V505 4th Ave, Asbury Park, NJ 07712, USA
p92
sVtypes
p93
(lp94
Velectronics_store
p95
aVestablishment
p96
aVhome_goods_store
p97
aVpoint_of_interest
p98
aVstore
p99
as.