(dp0
Vgeometry
p1
(dp2
Vlocation
p3
(dp4
Vlat
p5
F40.7671917
sVlng
p6
F-73.9833088
ssVviewport
p7
(dp8
Vnortheast
p9
(dp10
Vlat
p11
F40.7685406802915
sVlng
p12
F-73.98195981970849
ssVsouthwest
p13
(dp14
Vlat
p15
F40.7658427197085
sVlng
p16
F-73.9846577802915
sssVlocation_type
p17
VROOFTOP
p18
ssVformatted_address
p19
V311 W 57th St, New York, NY 10019, USA
p20
sVplace_id
p21
VChIJhTvxelhYwokREgDe_P_e1NY
p22
sVaddress_components
p23
(lp24
(dp25
Vlong_name
p26
V311
p27
sVtypes
p28
(lp29
Vstreet_number
p30
asVshort_name
p31
V311
p32
sa(dp33
Vlong_name
p34
VWest 57th Street
p35
sVtypes
p36
(lp37
Vroute
p38
asVshort_name
p39
VW 57th St
p40
sa(dp41
Vlong_name
p42
VManhattan
p43
sVtypes
p44
(lp45
Vpolitical
p46
aVsublocality
p47
aVsublocality_level_1
p48
asVshort_name
p49
VManhattan
p50
sa(dp51
Vlong_name
p52
VNew York
p53
sVtypes
p54
(lp55
Vlocality
p56
aVpolitical
p57
asVshort_name
p58
VNew York
p59
sa(dp60
Vlong_name
p61
VNew York County
p62
sVtypes
p63
(lp64
Vadministrative_area_level_2
p65
aVpolitical
p66
asVshort_name
p67
VNew York County
p68
sa(dp69
Vlong_name
p70
VNew York
p71
sVtypes
p72
(lp73
Vadministrative_area_level_1
p74
aVpolitical
p75
asVshort_name
p76
VNY
p77
sa(dp78
Vlong_name
p79
VUnited States
p80
sVtypes
p81
(lp82
Vcountry
p83
aVpolitical
p84
asVshort_name
p85
VUS
p86
sa(dp87
Vlong_name
p88
V10019
p89
sVtypes
p90
(lp91
Vpostal_code
p92
asVshort_name
p93
V10019
p94
sa(dp95
Vlong_name
p96
V3126
p97
sVtypes
p98
(lp99
Vpostal_code_suffix
p100
asVshort_name
p101
V3126
p102
sasVpartial_match
p103
I01
sVtypes
p104
(lp105
Vestablishment
p106
aVnight_club
p107
aVpoint_of_interest
p108
as.