(dp0
Vgeometry
p1
(dp2
Vlocation
p3
(dp4
Vlat
p5
F52.6504553
sVlng
p6
F4.7917461
ssVviewport
p7
(dp8
Vnortheast
p9
(dp10
Vlat
p11
F52.6518042802915
sVlng
p12
F4.793095080291502
ssVsouthwest
p13
(dp14
Vlat
p15
F52.6491063197085
sVlng
p16
F4.790397119708498
sssVlocation_type
p17
VROOFTOP
p18
ssVaddress_components
p19
(lp20
(dp21
Vlong_name
p22
V21
p23
sVtypes
p24
(lp25
Vstreet_number
p26
asVshort_name
p27
V21
p28
sa(dp29
Vlong_name
p30
VHermelijnkoog
p31
sVtypes
p32
(lp33
Vroute
p34
asVshort_name
p35
VHermelijnkoog
p36
sa(dp37
Vlong_name
p38
VAlkmaar
p39
sVtypes
p40
(lp41
Vlocality
p42
aVpolitical
p43
asVshort_name
p44
VAlkmaar
p45
sa(dp46
Vlong_name
p47
VAlkmaar
p48
sVtypes
p49
(lp50
Vadministrative_area_level_2
p51
aVpolitical
p52
asVshort_name
p53
VAlkmaar
p54
sa(dp55
Vlong_name
p56
VNoord-Holland
p57
sVtypes
p58
(lp59
Vadministrative_area_level_1
p60
aVpolitical
p61
asVshort_name
p62
VNH
p63
sa(dp64
Vlong_name
p65
VNetherlands
p66
sVtypes
p67
(lp68
Vcountry
p69
aVpolitical
p70
asVshort_name
p71
VNL
p72
sa(dp73
Vlong_name
p74
V1822 CA
p75
sVtypes
p76
(lp77
Vpostal_code
p78
asVshort_name
p79
V1822 CA
p80
sasVplace_id
p81
VChIJJRWgjYlWz0cRuef-0IRVcIU
p82
sVformatted_address
p83
VHermelijnkoog 21, 1822 CA Alkmaar, Netherlands
p84
sVtypes
p85
(lp86
Vestablishment
p87
aVpoint_of_interest
p88
as.