(dp0
Vgeometry
p1
(dp2
Vlocation
p3
(dp4
Vlat
p5
F51.927162
sVlng
p6
F4.478877
ssVviewport
p7
(dp8
Vnortheast
p9
(dp10
Vlat
p11
F51.92851098029149
sVlng
p12
F4.480225980291502
ssVsouthwest
p13
(dp14
Vlat
p15
F51.92581301970849
sVlng
p16
F4.477528019708497
sssVlocation_type
p17
VROOFTOP
p18
ssVaddress_components
p19
(lp20
(dp21
Vlong_name
p22
V12
p23
sVtypes
p24
(lp25
Vstreet_number
p26
asVshort_name
p27
V12
p28
sa(dp29
Vlong_name
p30
VRaampoortstraat
p31
sVtypes
p32
(lp33
Vroute
p34
asVshort_name
p35
VRaampoortstraat
p36
sa(dp37
Vlong_name
p38
VNoord
p39
sVtypes
p40
(lp41
Vpolitical
p42
aVsublocality
p43
aVsublocality_level_1
p44
asVshort_name
p45
VNoord
p46
sa(dp47
Vlong_name
p48
VRotterdam
p49
sVtypes
p50
(lp51
Vlocality
p52
aVpolitical
p53
asVshort_name
p54
VRotterdam
p55
sa(dp56
Vlong_name
p57
VRotterdam
p58
sVtypes
p59
(lp60
Vadministrative_area_level_2
p61
aVpolitical
p62
asVshort_name
p63
VRotterdam
p64
sa(dp65
Vlong_name
p66
VZuid-Holland
p67
sVtypes
p68
(lp69
Vadministrative_area_level_1
p70
aVpolitical
p71
asVshort_name
p72
VZH
p73
sa(dp74
Vlong_name
p75
VNetherlands
p76
sVtypes
p77
(lp78
Vcountry
p79
aVpolitical
p80
asVshort_name
p81
VNL
p82
sa(dp83
Vlong_name
p84
V3032 AD
p85
sVtypes
p86
(lp87
Vpostal_code
p88
asVshort_name
p89
V3032 AD
p90
sasVplace_id
p91
VChIJpYmM4FczxEcRadT_0XnilIo
p92
sVformatted_address
p93
VRaampoortstraat 12, 3032 AD Rotterdam, Netherlands
p94
sVtypes
p95
(lp96
Velectronics_store
p97
aVestablishment
p98
aVhome_goods_store
p99
aVpoint_of_interest
p100
aVstore
p101
as.