(dp0
Vgeometry
p1
(dp2
Vlocation_type
p3
VAPPROXIMATE
p4
sVbounds
p5
(dp6
Vnortheast
p7
(dp8
Vlat
p9
F53.4575653
sVlng
p10
F-1.914982
ssVsouthwest
p11
(dp12
Vlat
p13
F53.42809949999999
sVlng
p14
F-1.9952815
sssVviewport
p15
(dp16
Vnortheast
p17
(dp18
Vlat
p19
F53.4575653
sVlng
p20
F-1.914982
ssVsouthwest
p21
(dp22
Vlat
p23
F53.42809949999999
sVlng
p24
F-1.9952815
sssVlocation
p25
(dp26
Vlat
p27
F53.4433284
sVlng
p28
F-1.948907
sssVformatted_address
p29
VGlossop SK13, UK
p30
sVplace_id
p31
VChIJca88zELJe0gR6zL15Vr2pbo
p32
sVaddress_components
p33
(lp34
(dp35
Vlong_name
p36
VGlossop
p37
sVtypes
p38
(lp39
Vlocality
p40
aVpolitical
p41
asVshort_name
p42
VGlossop
p43
sa(dp44
Vlong_name
p45
VGlossop
p46
sVtypes
p47
(lp48
Vpostal_town
p49
asVshort_name
p50
VGlossop
p51
sa(dp52
Vlong_name
p53
VDerbyshire
p54
sVtypes
p55
(lp56
Vadministrative_area_level_2
p57
aVpolitical
p58
asVshort_name
p59
VDerbyshire
p60
sa(dp61
Vlong_name
p62
VEngland
p63
sVtypes
p64
(lp65
Vadministrative_area_level_1
p66
aVpolitical
p67
asVshort_name
p68
VEngland
p69
sa(dp70
Vlong_name
p71
VUnited Kingdom
p72
sVtypes
p73
(lp74
Vcountry
p75
aVpolitical
p76
asVshort_name
p77
VGB
p78
sa(dp79
Vlong_name
p80
VSK13
p81
sVtypes
p82
(lp83
Vpostal_code
p84
aVpostal_code_prefix
p85
asVshort_name
p86
VSK13
p87
sasVpartial_match
p88
I01
sVtypes
p89
(lp90
Vlocality
p91
aVpolitical
p92
as.