(dp0
Vgeometry
p1
(dp2
Vlocation
p3
(dp4
Vlat
p5
F44.9821844
sVlng
p6
F-93.2709606
ssVviewport
p7
(dp8
Vnortheast
p9
(dp10
Vlat
p11
F44.9835333802915
sVlng
p12
F-93.26961161970848
ssVsouthwest
p13
(dp14
Vlat
p15
F44.98083541970851
sVlng
p16
F-93.27230958029149
sssVlocation_type
p17
VROOFTOP
p18
ssVaddress_components
p19
(lp20
(dp21
Vlong_name
p22
V251
p23
sVtypes
p24
(lp25
Vstreet_number
p26
asVshort_name
p27
V251
p28
sa(dp29
Vlong_name
p30
VNorth 1st Avenue
p31
sVtypes
p32
(lp33
Vroute
p34
asVshort_name
p35
VN 1st Ave
p36
sa(dp37
Vlong_name
p38
VCentral Minneapolis
p39
sVtypes
p40
(lp41
Vneighborhood
p42
aVpolitical
p43
asVshort_name
p44
VCentral Minneapolis
p45
sa(dp46
Vlong_name
p47
VMinneapolis
p48
sVtypes
p49
(lp50
Vlocality
p51
aVpolitical
p52
asVshort_name
p53
VMinneapolis
p54
sa(dp55
Vlong_name
p56
VHennepin County
p57
sVtypes
p58
(lp59
Vadministrative_area_level_2
p60
aVpolitical
p61
asVshort_name
p62
VHennepin County
p63
sa(dp64
Vlong_name
p65
VMinnesota
p66
sVtypes
p67
(lp68
Vadministrative_area_level_1
p69
aVpolitical
p70
asVshort_name
p71
VMN
p72
sa(dp73
Vlong_name
p74
VUnited States
p75
sVtypes
p76
(lp77
Vcountry
p78
aVpolitical
p79
asVshort_name
p80
VUS
p81
sa(dp82
Vlong_name
p83
V55401
p84
sVtypes
p85
(lp86
Vpostal_code
p87
asVshort_name
p88
V55401
p89
sa(dp90
Vlong_name
p91
V1672
p92
sVtypes
p93
(lp94
Vpostal_code_suffix
p95
asVshort_name
p96
V1672
p97
sasVplace_id
p98
VChIJ9xsSQ4Uys1IRwprq_3YrAmE
p99
sVformatted_address
p100
V251 N 1st Ave, Minneapolis, MN 55401, USA
p101
sVtypes
p102
(lp103
Vestablishment
p104
aVpoint_of_interest
p105
as.