(dp0
Vgeometry
p1
(dp2
Vlocation
p3
(dp4
Vlat
p5
F42.533686
sVlng
p6
F-83.121394
ssVviewport
p7
(dp8
Vnortheast
p9
(dp10
Vlat
p11
F42.53503498029149
sVlng
p12
F-83.1200450197085
ssVsouthwest
p13
(dp14
Vlat
p15
F42.5323370197085
sVlng
p16
F-83.1227429802915
sssVlocation_type
p17
VROOFTOP
p18
ssVaddress_components
p19
(lp20
(dp21
Vlong_name
p22
V1235
p23
sVtypes
p24
(lp25
Vstreet_number
p26
asVshort_name
p27
V1235
p28
sa(dp29
Vlong_name
p30
VWest 14 Mile Road
p31
sVtypes
p32
(lp33
Vroute
p34
asVshort_name
p35
VW 14 Mile Rd
p36
sa(dp37
Vlong_name
p38
VMadison Heights
p39
sVtypes
p40
(lp41
Vlocality
p42
aVpolitical
p43
asVshort_name
p44
VMadison Heights
p45
sa(dp46
Vlong_name
p47
VOakland County
p48
sVtypes
p49
(lp50
Vadministrative_area_level_2
p51
aVpolitical
p52
asVshort_name
p53
VOakland County
p54
sa(dp55
Vlong_name
p56
VMichigan
p57
sVtypes
p58
(lp59
Vadministrative_area_level_1
p60
aVpolitical
p61
asVshort_name
p62
VMI
p63
sa(dp64
Vlong_name
p65
VUnited States
p66
sVtypes
p67
(lp68
Vcountry
p69
aVpolitical
p70
asVshort_name
p71
VUS
p72
sa(dp73
Vlong_name
p74
V48071
p75
sVtypes
p76
(lp77
Vpostal_code
p78
asVshort_name
p79
V48071
p80
sasVplace_id
p81
VChIJsTlnECbFJIgRMELcAVnPdP0
p82
sVformatted_address
p83
V1235 W 14 Mile Rd, Madison Heights, MI 48071, USA
p84
sVtypes
p85
(lp86
Vestablishment
p87
aVfood
p88
aVpoint_of_interest
p89
aVrestaurant
p90
as.