(dp0
Vgeometry
p1
(dp2
Vlocation
p3
(dp4
Vlat
p5
F-37.7970408
sVlng
p6
F144.9327468
ssVviewport
p7
(dp8
Vnortheast
p9
(dp10
Vlat
p11
F-37.7956918197085
sVlng
p12
F144.9340957802915
ssVsouthwest
p13
(dp14
Vlat
p15
F-37.7983897802915
sVlng
p16
F144.9313978197085
sssVlocation_type
p17
VROOFTOP
p18
ssVaddress_components
p19
(lp20
(dp21
Vlong_name
p22
V10
p23
sVtypes
p24
(lp25
Vstreet_number
p26
asVshort_name
p27
V10
p28
sa(dp29
Vlong_name
p30
VElizabeth Street
p31
sVtypes
p32
(lp33
Vroute
p34
asVshort_name
p35
VElizabeth St
p36
sa(dp37
Vlong_name
p38
VKensington
p39
sVtypes
p40
(lp41
Vlocality
p42
aVpolitical
p43
asVshort_name
p44
VKensington
p45
sa(dp46
Vlong_name
p47
VMelbourne City
p48
sVtypes
p49
(lp50
Vadministrative_area_level_2
p51
aVpolitical
p52
asVshort_name
p53
VMelbourne
p54
sa(dp55
Vlong_name
p56
VVictoria
p57
sVtypes
p58
(lp59
Vadministrative_area_level_1
p60
aVpolitical
p61
asVshort_name
p62
VVIC
p63
sa(dp64
Vlong_name
p65
VAustralia
p66
sVtypes
p67
(lp68
Vcountry
p69
aVpolitical
p70
asVshort_name
p71
VAU
p72
sa(dp73
Vlong_name
p74
V3031
p75
sVtypes
p76
(lp77
Vpostal_code
p78
asVshort_name
p79
V3031
p80
sasVplace_id
p81
VChIJc-oxWxFd1moRy_NGPpwgcjs
p82
sVformatted_address
p83
V10 Elizabeth St, Kensington VIC 3031, Australia
p84
sVtypes
p85
(lp86
Vestablishment
p87
aVpoint_of_interest
p88
as.