(dp0
Vgeometry
p1
(dp2
Vlocation_type
p3
VAPPROXIMATE
p4
sVbounds
p5
(dp6
Vnortheast
p7
(dp8
Vlat
p9
F51.5495639
sVlng
p10
F-0.8813689
ssVsouthwest
p11
(dp12
Vlat
p13
F51.5226171
sVlng
p14
F-0.9327975
sssVviewport
p15
(dp16
Vnortheast
p17
(dp18
Vlat
p19
F51.5495639
sVlng
p20
F-0.8813689
ssVsouthwest
p21
(dp22
Vlat
p23
F51.5226171
sVlng
p24
F-0.9327975
sssVlocation
p25
(dp26
Vlat
p27
F51.535764
sVlng
p28
F-0.902894
sssVformatted_address
p29
VHenley-on-Thames RG9, UK
p30
sVplace_id
p31
VChIJq7IMrUKFdkgRfZw8lcUHsFA
p32
sVaddress_components
p33
(lp34
(dp35
Vlong_name
p36
VHenley-on-Thames
p37
sVtypes
p38
(lp39
Vlocality
p40
aVpolitical
p41
asVshort_name
p42
VHenley-on-Thames
p43
sa(dp44
Vlong_name
p45
VHenley-on-Thames
p46
sVtypes
p47
(lp48
Vpostal_town
p49
asVshort_name
p50
VHenley-on-Thames
p51
sa(dp52
Vlong_name
p53
VOxfordshire
p54
sVtypes
p55
(lp56
Vadministrative_area_level_2
p57
aVpolitical
p58
asVshort_name
p59
VOxfordshire
p60
sa(dp61
Vlong_name
p62
VEngland
p63
sVtypes
p64
(lp65
Vadministrative_area_level_1
p66
aVpolitical
p67
asVshort_name
p68
VEngland
p69
sa(dp70
Vlong_name
p71
VUnited Kingdom
p72
sVtypes
p73
(lp74
Vcountry
p75
aVpolitical
p76
asVshort_name
p77
VGB
p78
sa(dp79
Vlong_name
p80
VRG9
p81
sVtypes
p82
(lp83
Vpostal_code
p84
aVpostal_code_prefix
p85
asVshort_name
p86
VRG9
p87
sasVpartial_match
p88
I01
sVtypes
p89
(lp90
Vlocality
p91
aVpolitical
p92
as.