(dp0
Vgeometry
p1
(dp2
Vlocation
p3
(dp4
Vlat
p5
F45.53801139999999
sVlng
p6
F-122.6721277
ssVviewport
p7
(dp8
Vnortheast
p9
(dp10
Vlat
p11
F45.53936038029149
sVlng
p12
F-122.6707787197085
ssVsouthwest
p13
(dp14
Vlat
p15
F45.53666241970849
sVlng
p16
F-122.6734766802915
sssVlocation_type
p17
VROOFTOP
p18
ssVaddress_components
p19
(lp20
(dp21
Vlong_name
p22
V611
p23
sVtypes
p24
(lp25
Vstreet_number
p26
asVshort_name
p27
V611
p28
sa(dp29
Vlong_name
p30
VNorth Tillamook Street
p31
sVtypes
p32
(lp33
Vroute
p34
asVshort_name
p35
VN Tillamook St
p36
sa(dp37
Vlong_name
p38
VEliot
p39
sVtypes
p40
(lp41
Vneighborhood
p42
aVpolitical
p43
asVshort_name
p44
VEliot
p45
sa(dp46
Vlong_name
p47
VPortland
p48
sVtypes
p49
(lp50
Vlocality
p51
aVpolitical
p52
asVshort_name
p53
VPortland
p54
sa(dp55
Vlong_name
p56
VMultnomah County
p57
sVtypes
p58
(lp59
Vadministrative_area_level_2
p60
aVpolitical
p61
asVshort_name
p62
VMultnomah County
p63
sa(dp64
Vlong_name
p65
VOregon
p66
sVtypes
p67
(lp68
Vadministrative_area_level_1
p69
aVpolitical
p70
asVshort_name
p71
VOR
p72
sa(dp73
Vlong_name
p74
VUnited States
p75
sVtypes
p76
(lp77
Vcountry
p78
aVpolitical
p79
asVshort_name
p80
VUS
p81
sa(dp82
Vlong_name
p83
V97227
p84
sVtypes
p85
(lp86
Vpostal_code
p87
asVshort_name
p88
V97227
p89
sasVplace_id
p90
VChIJtxEx2AAKlVQRi9upMUB9yZs
p91
sVformatted_address
p92
V611 N Tillamook St, Portland, OR 97227, USA
p93
sVtypes
p94
(lp95
Vclothing_store
p96
aVestablishment
p97
aVpoint_of_interest
p98
aVstore
p99
as.