(dp0
Vgeometry
p1
(dp2
Vlocation
p3
(dp4
Vlat
p5
F43.066669
sVlng
p6
F-89.72307099999999
ssVviewport
p7
(dp8
Vnortheast
p9
(dp10
Vlat
p11
F43.06801798029149
sVlng
p12
F-89.7217220197085
ssVsouthwest
p13
(dp14
Vlat
p15
F43.06532001970849
sVlng
p16
F-89.7244199802915
sssVlocation_type
p17
VROOFTOP
p18
ssVaddress_components
p19
(lp20
(dp21
Vlong_name
p22
V3838
p23
sVtypes
p24
(lp25
Vstreet_number
p26
asVshort_name
p27
V3838
p28
sa(dp29
Vlong_name
p30
VWisconsin 78
p31
sVtypes
p32
(lp33
Vroute
p34
asVshort_name
p35
VWI-78
p36
sa(dp37
Vlong_name
p38
VMount Horeb
p39
sVtypes
p40
(lp41
Vlocality
p42
aVpolitical
p43
asVshort_name
p44
VMt Horeb
p45
sa(dp46
Vlong_name
p47
VVermont
p48
sVtypes
p49
(lp50
Vadministrative_area_level_3
p51
aVpolitical
p52
asVshort_name
p53
VVermont
p54
sa(dp55
Vlong_name
p56
VDane County
p57
sVtypes
p58
(lp59
Vadministrative_area_level_2
p60
aVpolitical
p61
asVshort_name
p62
VDane County
p63
sa(dp64
Vlong_name
p65
VWisconsin
p66
sVtypes
p67
(lp68
Vadministrative_area_level_1
p69
aVpolitical
p70
asVshort_name
p71
VWI
p72
sa(dp73
Vlong_name
p74
VUnited States
p75
sVtypes
p76
(lp77
Vcountry
p78
aVpolitical
p79
asVshort_name
p80
VUS
p81
sa(dp82
Vlong_name
p83
V53572
p84
sVtypes
p85
(lp86
Vpostal_code
p87
asVshort_name
p88
V53572
p89
sasVplace_id
p90
VChIJ1caIFvKYB4gRnob0mgx6mNw
p91
sVformatted_address
p92
V3838 WI-78, Mt Horeb, WI 53572, USA
p93
sVtypes
p94
(lp95
Vestablishment
p96
aVpoint_of_interest
p97
as.