(dp0
Vgeometry
p1
(dp2
Vlocation
p3
(dp4
Vlat
p5
F24.5661277
sVlng
p6
F-81.7695274
ssVviewport
p7
(dp8
Vnortheast
p9
(dp10
Vlat
p11
F24.5674766802915
sVlng
p12
F-81.7681784197085
ssVsouthwest
p13
(dp14
Vlat
p15
F24.5647787197085
sVlng
p16
F-81.77087638029151
sssVlocation_type
p17
VROOFTOP
p18
ssVformatted_address
p19
V1107 Key Plaza, Key West, FL 33040, USA
p20
sVplace_id
p21
VChIJSRWg1U6x0YgRrxN39NWxY6Y
p22
sVaddress_components
p23
(lp24
(dp25
Vlong_name
p26
V1107
p27
sVtypes
p28
(lp29
Vstreet_number
p30
asVshort_name
p31
V1107
p32
sa(dp33
Vlong_name
p34
VKey Plaza
p35
sVtypes
p36
(lp37
Vroute
p38
asVshort_name
p39
VKey Plaza
p40
sa(dp41
Vlong_name
p42
VKey West
p43
sVtypes
p44
(lp45
Vlocality
p46
aVpolitical
p47
asVshort_name
p48
VKey West
p49
sa(dp50
Vlong_name
p51
VMonroe County
p52
sVtypes
p53
(lp54
Vadministrative_area_level_2
p55
aVpolitical
p56
asVshort_name
p57
VMonroe County
p58
sa(dp59
Vlong_name
p60
VFlorida
p61
sVtypes
p62
(lp63
Vadministrative_area_level_1
p64
aVpolitical
p65
asVshort_name
p66
VFL
p67
sa(dp68
Vlong_name
p69
VUnited States
p70
sVtypes
p71
(lp72
Vcountry
p73
aVpolitical
p74
asVshort_name
p75
VUS
p76
sa(dp77
Vlong_name
p78
V33040
p79
sVtypes
p80
(lp81
Vpostal_code
p82
asVshort_name
p83
V33040
p84
sasVpartial_match
p85
I01
sVtypes
p86
(lp87
Vestablishment
p88
aVpoint_of_interest
p89
aVstorage
p90
as.