(dp0
Vgeometry
p1
(dp2
Vlocation_type
p3
VAPPROXIMATE
p4
sVbounds
p5
(dp6
Vnortheast
p7
(dp8
Vlat
p9
F51.1880501
sVlng
p10
F3.8492301
ssVsouthwest
p11
(dp12
Vlat
p13
F50.97683
sVlng
p14
F3.57974
sssVviewport
p15
(dp16
Vnortheast
p17
(dp18
Vlat
p19
F51.1880501
sVlng
p20
F3.8492301
ssVsouthwest
p21
(dp22
Vlat
p23
F50.97683
sVlng
p24
F3.57974
sssVlocation
p25
(dp26
Vlat
p27
F51.0543422
sVlng
p28
F3.7174243
sssVformatted_address
p29
VGhent, Belgium
p30
sVplace_id
p31
VChIJrUOUM-Fww0cRQFFNL6uZAAQ
p32
sVaddress_components
p33
(lp34
(dp35
Vlong_name
p36
VGhent
p37
sVtypes
p38
(lp39
Vlocality
p40
aVpolitical
p41
asVshort_name
p42
VGhent
p43
sa(dp44
Vlong_name
p45
VEast Flanders
p46
sVtypes
p47
(lp48
Vadministrative_area_level_2
p49
aVpolitical
p50
asVshort_name
p51
VOV
p52
sa(dp53
Vlong_name
p54
VFlanders
p55
sVtypes
p56
(lp57
Vadministrative_area_level_1
p58
aVpolitical
p59
asVshort_name
p60
VFlanders
p61
sa(dp62
Vlong_name
p63
VBelgium
p64
sVtypes
p65
(lp66
Vcountry
p67
aVpolitical
p68
asVshort_name
p69
VBE
p70
sasVpartial_match
p71
I01
sVtypes
p72
(lp73
Vlocality
p74
aVpolitical
p75
as.