(dp0
Vgeometry
p1
(dp2
Vlocation_type
p3
VAPPROXIMATE
p4
sVbounds
p5
(dp6
Vnortheast
p7
(dp8
Vlat
p9
F41.199779
sVlng
p10
F-84.998627
ssVsouthwest
p11
(dp12
Vlat
p13
F40.965447
sVlng
p14
F-85.303173
sssVviewport
p15
(dp16
Vnortheast
p17
(dp18
Vlat
p19
F41.199779
sVlng
p20
F-84.998627
ssVsouthwest
p21
(dp22
Vlat
p23
F40.965447
sVlng
p24
F-85.303173
sssVlocation
p25
(dp26
Vlat
p27
F41.079273
sVlng
p28
F-85.1393513
sssVformatted_address
p29
VFort Wayne, IN, USA
p30
sVplace_id
p31
VChIJS4Ei_93kFYgRk_dCdhR7B4A
p32
sVaddress_components
p33
(lp34
(dp35
Vlong_name
p36
VFort Wayne
p37
sVtypes
p38
(lp39
Vlocality
p40
aVpolitical
p41
asVshort_name
p42
VFort Wayne
p43
sa(dp44
Vlong_name
p45
VAllen County
p46
sVtypes
p47
(lp48
Vadministrative_area_level_2
p49
aVpolitical
p50
asVshort_name
p51
VAllen County
p52
sa(dp53
Vlong_name
p54
VIndiana
p55
sVtypes
p56
(lp57
Vadministrative_area_level_1
p58
aVpolitical
p59
asVshort_name
p60
VIN
p61
sa(dp62
Vlong_name
p63
VUnited States
p64
sVtypes
p65
(lp66
Vcountry
p67
aVpolitical
p68
asVshort_name
p69
VUS
p70
sasVpartial_match
p71
I01
sVtypes
p72
(lp73
Vlocality
p74
aVpolitical
p75
as.