(dp0
Vgeometry
p1
(dp2
Vlocation
p3
(dp4
Vlat
p5
F29.6139846
sVlng
p6
F-95.4296596
ssVviewport
p7
(dp8
Vnortheast
p9
(dp10
Vlat
p11
F29.6153335802915
sVlng
p12
F-95.42831061970848
ssVsouthwest
p13
(dp14
Vlat
p15
F29.6126356197085
sVlng
p16
F-95.4310085802915
sssVlocation_type
p17
VROOFTOP
p18
ssVaddress_components
p19
(lp20
(dp21
Vlong_name
p22
V3538
p23
sVtypes
p24
(lp25
Vstreet_number
p26
asVshort_name
p27
V3538
p28
sa(dp29
Vlong_name
p30
VWest Fuqua Street
p31
sVtypes
p32
(lp33
Vroute
p34
asVshort_name
p35
VW Fuqua St
p36
sa(dp37
Vlong_name
p38
VCentral Southwest
p39
sVtypes
p40
(lp41
Vneighborhood
p42
aVpolitical
p43
asVshort_name
p44
VCentral Southwest
p45
sa(dp46
Vlong_name
p47
VHouston
p48
sVtypes
p49
(lp50
Vlocality
p51
aVpolitical
p52
asVshort_name
p53
VHouston
p54
sa(dp55
Vlong_name
p56
VHarris County
p57
sVtypes
p58
(lp59
Vadministrative_area_level_2
p60
aVpolitical
p61
asVshort_name
p62
VHarris County
p63
sa(dp64
Vlong_name
p65
VTexas
p66
sVtypes
p67
(lp68
Vadministrative_area_level_1
p69
aVpolitical
p70
asVshort_name
p71
VTX
p72
sa(dp73
Vlong_name
p74
VUnited States
p75
sVtypes
p76
(lp77
Vcountry
p78
aVpolitical
p79
asVshort_name
p80
VUS
p81
sa(dp82
Vlong_name
p83
V77045
p84
sVtypes
p85
(lp86
Vpostal_code
p87
asVshort_name
p88
V77045
p89
sasVplace_id
p90
VChIJY3AoMnmVQIYREUxHi4TmabU
p91
sVformatted_address
p92
V3538 W Fuqua St, Houston, TX 77045, USA
p93
sVtypes
p94
(lp95
Velectronics_store
p96
aVestablishment
p97
aVhome_goods_store
p98
aVpoint_of_interest
p99
aVstore
p100
as.