(dp0
Vgeometry
p1
(dp2
Vlocation_type
p3
VAPPROXIMATE
p4
sVbounds
p5
(dp6
Vnortheast
p7
(dp8
Vlat
p9
F40.7425263
sVlng
p10
F-73.97164459999999
ssVsouthwest
p11
(dp12
Vlat
p13
F40.7004631
sVlng
p14
F-74.01933500000001
sssVviewport
p15
(dp16
Vnortheast
p17
(dp18
Vlat
p19
F40.7425263
sVlng
p20
F-73.97164459999999
ssVsouthwest
p21
(dp22
Vlat
p23
F40.7004631
sVlng
p24
F-74.01933500000001
sssVlocation
p25
(dp26
Vlat
p27
F40.7230084
sVlng
p28
F-74.00063279999999
sssVaddress_components
p29
(lp30
(dp31
Vlong_name
p32
VLower Manhattan
p33
sVtypes
p34
(lp35
Vneighborhood
p36
aVpolitical
p37
asVshort_name
p38
VLower Manhattan
p39
sa(dp40
Vlong_name
p41
VManhattan
p42
sVtypes
p43
(lp44
Vpolitical
p45
aVsublocality
p46
aVsublocality_level_1
p47
asVshort_name
p48
VManhattan
p49
sa(dp50
Vlong_name
p51
VNew York
p52
sVtypes
p53
(lp54
Vlocality
p55
aVpolitical
p56
asVshort_name
p57
VNew York
p58
sa(dp59
Vlong_name
p60
VNew York County
p61
sVtypes
p62
(lp63
Vadministrative_area_level_2
p64
aVpolitical
p65
asVshort_name
p66
VNew York County
p67
sa(dp68
Vlong_name
p69
VNew York
p70
sVtypes
p71
(lp72
Vadministrative_area_level_1
p73
aVpolitical
p74
asVshort_name
p75
VNY
p76
sa(dp77
Vlong_name
p78
VUnited States
p79
sVtypes
p80
(lp81
Vcountry
p82
aVpolitical
p83
asVshort_name
p84
VUS
p85
sasVplace_id
p86
VChIJi4MZVIhZwokRPNvWbi-c0wI
p87
sVformatted_address
p88
VLower Manhattan, New York, NY, USA
p89
sVtypes
p90
(lp91
Vneighborhood
p92
aVpolitical
p93
as.