(dp0
Vgeometry
p1
(dp2
Vlocation_type
p3
VGEOMETRIC_CENTER
p4
sVbounds
p5
(dp6
Vnortheast
p7
(dp8
Vlat
p9
F40.71164599999999
sVlng
p10
F-73.9671537
ssVsouthwest
p11
(dp12
Vlat
p13
F40.7107283
sVlng
p14
F-73.9677305
sssVviewport
p15
(dp16
Vnortheast
p17
(dp18
Vlat
p19
F40.7125361302915
sVlng
p20
F-73.9660931197085
ssVsouthwest
p21
(dp22
Vlat
p23
F40.7098381697085
sVlng
p24
F-73.96879108029151
sssVlocation
p25
(dp26
Vlat
p27
F40.7112229
sVlng
p28
F-73.9674376
sssVaddress_components
p29
(lp30
(dp31
Vlong_name
p32
VDunham Place
p33
sVtypes
p34
(lp35
Vroute
p36
asVshort_name
p37
VDunham Pl
p38
sa(dp39
Vlong_name
p40
VWilliamsburg
p41
sVtypes
p42
(lp43
Vneighborhood
p44
aVpolitical
p45
asVshort_name
p46
VWilliamsburg
p47
sa(dp48
Vlong_name
p49
VBrooklyn
p50
sVtypes
p51
(lp52
Vpolitical
p53
aVsublocality
p54
aVsublocality_level_1
p55
asVshort_name
p56
VBrooklyn
p57
sa(dp58
Vlong_name
p59
VKings County
p60
sVtypes
p61
(lp62
Vadministrative_area_level_2
p63
aVpolitical
p64
asVshort_name
p65
VKings County
p66
sa(dp67
Vlong_name
p68
VNew York
p69
sVtypes
p70
(lp71
Vadministrative_area_level_1
p72
aVpolitical
p73
asVshort_name
p74
VNY
p75
sa(dp76
Vlong_name
p77
VUnited States
p78
sVtypes
p79
(lp80
Vcountry
p81
aVpolitical
p82
asVshort_name
p83
VUS
p84
sa(dp85
Vlong_name
p86
V11249
p87
sVtypes
p88
(lp89
Vpostal_code
p90
asVshort_name
p91
V11249
p92
sasVplace_id
p93
VChIJB9Ni49hbwokR56yLHZ1vlKo
p94
sVformatted_address
p95
VDunham Pl, Brooklyn, NY 11249, USA
p96
sVtypes
p97
(lp98
Vroute
p99
as.