(dp0
Vgeometry
p1
(dp2
Vlocation_type
p3
VAPPROXIMATE
p4
sVbounds
p5
(dp6
Vnortheast
p7
(dp8
Vlat
p9
F40.796557
sVlng
p10
F-73.99288290000001
ssVsouthwest
p11
(dp12
Vlat
p13
F40.774384
sVlng
p14
F-74.0236139
sssVviewport
p15
(dp16
Vnortheast
p17
(dp18
Vlat
p19
F40.796557
sVlng
p20
F-73.99288290000001
ssVsouthwest
p21
(dp22
Vlat
p23
F40.774384
sVlng
p24
F-74.0236139
sssVlocation
p25
(dp26
Vlat
p27
F40.7878788
sVlng
p28
F-74.0143064
sssVformatted_address
p29
VWest New York, NJ 07093, USA
p30
sVplace_id
p31
VChIJ1bg4GRNYwokRli3vr6gwnOM
p32
sVaddress_components
p33
(lp34
(dp35
Vlong_name
p36
VWest New York
p37
sVtypes
p38
(lp39
Vlocality
p40
aVpolitical
p41
asVshort_name
p42
VWest New York
p43
sa(dp44
Vlong_name
p45
VHudson County
p46
sVtypes
p47
(lp48
Vadministrative_area_level_2
p49
aVpolitical
p50
asVshort_name
p51
VHudson County
p52
sa(dp53
Vlong_name
p54
VNew Jersey
p55
sVtypes
p56
(lp57
Vadministrative_area_level_1
p58
aVpolitical
p59
asVshort_name
p60
VNJ
p61
sa(dp62
Vlong_name
p63
VUnited States
p64
sVtypes
p65
(lp66
Vcountry
p67
aVpolitical
p68
asVshort_name
p69
VUS
p70
sa(dp71
Vlong_name
p72
V07093
p73
sVtypes
p74
(lp75
Vpostal_code
p76
asVshort_name
p77
V07093
p78
sasVpartial_match
p79
I01
sVtypes
p80
(lp81
Vlocality
p82
aVpolitical
p83
as.