(dp0
Vgeometry
p1
(dp2
Vlocation
p3
(dp4
Vlat
p5
F33.815148
sVlng
p6
F-118.029622
ssVviewport
p7
(dp8
Vnortheast
p9
(dp10
Vlat
p11
F33.8164969802915
sVlng
p12
F-118.0282730197085
ssVsouthwest
p13
(dp14
Vlat
p15
F33.8137990197085
sVlng
p16
F-118.0309709802915
sssVlocation_type
p17
VROOFTOP
p18
ssVformatted_address
p19
V10073 Valley View St #221, Cypress, CA 90630, USA
p20
sVplace_id
p21
VChIJ_____7su3YARGvXvydJXthQ
p22
sVaddress_components
p23
(lp24
(dp25
Vlong_name
p26
V221
p27
sVtypes
p28
(lp29
Vsubpremise
p30
asVshort_name
p31
V221
p32
sa(dp33
Vlong_name
p34
V10073
p35
sVtypes
p36
(lp37
Vstreet_number
p38
asVshort_name
p39
V10073
p40
sa(dp41
Vlong_name
p42
VValley View Street
p43
sVtypes
p44
(lp45
Vroute
p46
asVshort_name
p47
VValley View St
p48
sa(dp49
Vlong_name
p50
VCypress
p51
sVtypes
p52
(lp53
Vlocality
p54
aVpolitical
p55
asVshort_name
p56
VCypress
p57
sa(dp58
Vlong_name
p59
VOrange County
p60
sVtypes
p61
(lp62
Vadministrative_area_level_2
p63
aVpolitical
p64
asVshort_name
p65
VOrange County
p66
sa(dp67
Vlong_name
p68
VCalifornia
p69
sVtypes
p70
(lp71
Vadministrative_area_level_1
p72
aVpolitical
p73
asVshort_name
p74
VCA
p75
sa(dp76
Vlong_name
p77
VUnited States
p78
sVtypes
p79
(lp80
Vcountry
p81
aVpolitical
p82
asVshort_name
p83
VUS
p84
sa(dp85
Vlong_name
p86
V90630
p87
sVtypes
p88
(lp89
Vpostal_code
p90
asVshort_name
p91
V90630
p92
sa(dp93
Vlong_name
p94
V4601
p95
sVtypes
p96
(lp97
Vpostal_code_suffix
p98
asVshort_name
p99
V4601
p100
sasVpartial_match
p101
I01
sVtypes
p102
(lp103
Vestablishment
p104
aVpoint_of_interest
p105
as.