(dp0
Vgeometry
p1
(dp2
Vlocation_type
p3
VAPPROXIMATE
p4
sVbounds
p5
(dp6
Vnortheast
p7
(dp8
Vlat
p9
F-36.660571
sVlng
p10
F175.2871371
ssVsouthwest
p11
(dp12
Vlat
p13
F-37.0654751
sVlng
p14
F174.4438016
sssVviewport
p15
(dp16
Vnortheast
p17
(dp18
Vlat
p19
F-36.660571
sVlng
p20
F175.2871371
ssVsouthwest
p21
(dp22
Vlat
p23
F-37.0654751
sVlng
p24
F174.4438016
sssVlocation
p25
(dp26
Vlat
p27
F-36.8484597
sVlng
p28
F174.7633315
sssVformatted_address
p29
VAuckland, New Zealand
p30
sVplace_id
p31
VChIJ--acWvtHDW0RF5miQ2HvAAU
p32
sVaddress_components
p33
(lp34
(dp35
Vlong_name
p36
VAuckland
p37
sVtypes
p38
(lp39
Vlocality
p40
aVpolitical
p41
asVshort_name
p42
VAuckland
p43
sa(dp44
Vlong_name
p45
VAuckland
p46
sVtypes
p47
(lp48
Vadministrative_area_level_1
p49
aVpolitical
p50
asVshort_name
p51
VAuckland
p52
sa(dp53
Vlong_name
p54
VNew Zealand
p55
sVtypes
p56
(lp57
Vcountry
p58
aVpolitical
p59
asVshort_name
p60
VNZ
p61
sasVpartial_match
p62
I01
sVtypes
p63
(lp64
Vlocality
p65
aVpolitical
p66
as.