(dp0
Vgeometry
p1
(dp2
Vlocation_type
p3
VAPPROXIMATE
p4
sVbounds
p5
(dp6
Vnortheast
p7
(dp8
Vlat
p9
F49.9502879
sVlng
p10
F2.3457469
ssVsouthwest
p11
(dp12
Vlat
p13
F49.84683589999999
sVlng
p14
F2.223528
sssVviewport
p15
(dp16
Vnortheast
p17
(dp18
Vlat
p19
F49.9502879
sVlng
p20
F2.3457469
ssVsouthwest
p21
(dp22
Vlat
p23
F49.84683589999999
sVlng
p24
F2.223528
sssVlocation
p25
(dp26
Vlat
p27
F49.894067
sVlng
p28
F2.295753
sssVformatted_address
p29
VAmiens, France
p30
sVplace_id
p31
VChIJC3aL1xOE50cR4CBigT7xCgQ
p32
sVaddress_components
p33
(lp34
(dp35
Vlong_name
p36
VAmiens
p37
sVtypes
p38
(lp39
Vlocality
p40
aVpolitical
p41
asVshort_name
p42
VAmiens
p43
sa(dp44
Vlong_name
p45
VSomme
p46
sVtypes
p47
(lp48
Vadministrative_area_level_2
p49
aVpolitical
p50
asVshort_name
p51
VSomme
p52
sa(dp53
Vlong_name
p54
VHauts-de-France
p55
sVtypes
p56
(lp57
Vadministrative_area_level_1
p58
aVpolitical
p59
asVshort_name
p60
VHauts-de-France
p61
sa(dp62
Vlong_name
p63
VFrance
p64
sVtypes
p65
(lp66
Vcountry
p67
aVpolitical
p68
asVshort_name
p69
VFR
p70
sasVpartial_match
p71
I01
sVtypes
p72
(lp73
Vlocality
p74
aVpolitical
p75
as.