(dp0
Vgeometry
p1
(dp2
Vlocation
p3
(dp4
Vlat
p5
F37.7808655
sVlng
p6
F-122.4196054
ssVviewport
p7
(dp8
Vnortheast
p9
(dp10
Vlat
p11
F37.78221448029149
sVlng
p12
F-122.4182564197085
ssVsouthwest
p13
(dp14
Vlat
p15
F37.7795165197085
sVlng
p16
F-122.4209543802915
sssVlocation_type
p17
VROOFTOP
p18
ssVaddress_components
p19
(lp20
(dp21
Vlong_name
p22
V555
p23
sVtypes
p24
(lp25
Vstreet_number
p26
asVshort_name
p27
V555
p28
sa(dp29
Vlong_name
p30
VGolden Gate Avenue
p31
sVtypes
p32
(lp33
Vroute
p34
asVshort_name
p35
VGolden Gate Ave
p36
sa(dp37
Vlong_name
p38
VCivic Center
p39
sVtypes
p40
(lp41
Vneighborhood
p42
aVpolitical
p43
asVshort_name
p44
VCivic Center
p45
sa(dp46
Vlong_name
p47
VSan Francisco
p48
sVtypes
p49
(lp50
Vlocality
p51
aVpolitical
p52
asVshort_name
p53
VSF
p54
sa(dp55
Vlong_name
p56
VSan Francisco County
p57
sVtypes
p58
(lp59
Vadministrative_area_level_2
p60
aVpolitical
p61
asVshort_name
p62
VSan Francisco County
p63
sa(dp64
Vlong_name
p65
VCalifornia
p66
sVtypes
p67
(lp68
Vadministrative_area_level_1
p69
aVpolitical
p70
asVshort_name
p71
VCA
p72
sa(dp73
Vlong_name
p74
VUnited States
p75
sVtypes
p76
(lp77
Vcountry
p78
aVpolitical
p79
asVshort_name
p80
VUS
p81
sa(dp82
Vlong_name
p83
V94102
p84
sVtypes
p85
(lp86
Vpostal_code
p87
asVshort_name
p88
V94102
p89
sasVplace_id
p90
VChIJL9PX65mAhYARrYgUCk5g7ok
p91
sVformatted_address
p92
V555 Golden Gate Ave, San Francisco, CA 94102, USA
p93
sVtypes
p94
(lp95
Vestablishment
p96
aVnight_club
p97
aVpoint_of_interest
p98
as.