(dp0
Vgeometry
p1
(dp2
Vlocation
p3
(dp4
Vlat
p5
F49.2863029
sVlng
p6
F-123.1434842
ssVviewport
p7
(dp8
Vnortheast
p9
(dp10
Vlat
p11
F49.28765188029149
sVlng
p12
F-123.1421352197085
ssVsouthwest
p13
(dp14
Vlat
p15
F49.2849539197085
sVlng
p16
F-123.1448331802915
sssVlocation_type
p17
VGEOMETRIC_CENTER
p18
ssVaddress_components
p19
(lp20
(dp21
Vlong_name
p22
VWest End
p23
sVtypes
p24
(lp25
Vneighborhood
p26
aVpolitical
p27
asVshort_name
p28
VWest End
p29
sa(dp30
Vlong_name
p31
VVancouver
p32
sVtypes
p33
(lp34
Vlocality
p35
aVpolitical
p36
asVshort_name
p37
VVancouver
p38
sa(dp39
Vlong_name
p40
VGreater Vancouver A
p41
sVtypes
p42
(lp43
Vadministrative_area_level_3
p44
aVpolitical
p45
asVshort_name
p46
VGreater Vancouver A
p47
sa(dp48
Vlong_name
p49
VGreater Vancouver
p50
sVtypes
p51
(lp52
Vadministrative_area_level_2
p53
aVpolitical
p54
asVshort_name
p55
VGreater Vancouver
p56
sa(dp57
Vlong_name
p58
VBritish Columbia
p59
sVtypes
p60
(lp61
Vadministrative_area_level_1
p62
aVpolitical
p63
asVshort_name
p64
VBC
p65
sa(dp66
Vlong_name
p67
VCanada
p68
sVtypes
p69
(lp70
Vcountry
p71
aVpolitical
p72
asVshort_name
p73
VCA
p74
sasVplace_id
p75
VChIJEXOVbi9yhlQRofJ1CXqHheg
p76
sVformatted_address
p77
VWest End, Vancouver, BC, Canada
p78
sVtypes
p79
(lp80
Vestablishment
p81
aVpoint_of_interest
p82
as.