(dp0
Vgeometry
p1
(dp2
Vlocation_type
p3
VAPPROXIMATE
p4
sVbounds
p5
(dp6
Vnortheast
p7
(dp8
Vlat
p9
F51.3774301
sVlng
p10
F4.49784
ssVsouthwest
p11
(dp12
Vlat
p13
F51.14333999999999
sVlng
p14
F4.217600099999999
sssVviewport
p15
(dp16
Vnortheast
p17
(dp18
Vlat
p19
F51.3774301
sVlng
p20
F4.49784
ssVsouthwest
p21
(dp22
Vlat
p23
F51.14333999999999
sVlng
p24
F4.217600099999999
sssVlocation
p25
(dp26
Vlat
p27
F51.2194475
sVlng
p28
F4.4024643
sssVformatted_address
p29
VAntwerp, Belgium
p30
sVplace_id
p31
VChIJfYjDv472w0cRuIqogoRErz4
p32
sVaddress_components
p33
(lp34
(dp35
Vlong_name
p36
VAntwerp
p37
sVtypes
p38
(lp39
Vlocality
p40
aVpolitical
p41
asVshort_name
p42
VAntwerp
p43
sa(dp44
Vlong_name
p45
VAntwerp
p46
sVtypes
p47
(lp48
Vadministrative_area_level_2
p49
aVpolitical
p50
asVshort_name
p51
VAN
p52
sa(dp53
Vlong_name
p54
VFlanders
p55
sVtypes
p56
(lp57
Vadministrative_area_level_1
p58
aVpolitical
p59
asVshort_name
p60
VFlanders
p61
sa(dp62
Vlong_name
p63
VBelgium
p64
sVtypes
p65
(lp66
Vcountry
p67
aVpolitical
p68
asVshort_name
p69
VBE
p70
sasVpartial_match
p71
I01
sVtypes
p72
(lp73
Vlocality
p74
aVpolitical
p75
as.