(dp0
Vgeometry
p1
(dp2
Vlocation
p3
(dp4
Vlat
p5
F40.74863
sVlng
p6
F-73.99027889999999
ssVviewport
p7
(dp8
Vnortheast
p9
(dp10
Vlat
p11
F40.7499789802915
sVlng
p12
F-73.98892991970848
ssVsouthwest
p13
(dp14
Vlat
p15
F40.7472810197085
sVlng
p16
F-73.99162788029149
sssVlocation_type
p17
VROOFTOP
p18
ssVaddress_components
p19
(lp20
(dp21
Vlong_name
p22
V125
p23
sVtypes
p24
(lp25
Vstreet_number
p26
asVshort_name
p27
V125
p28
sa(dp29
Vlong_name
p30
VWest 31st Street
p31
sVtypes
p32
(lp33
Vroute
p34
asVshort_name
p35
VW 31st St
p36
sa(dp37
Vlong_name
p38
VManhattan
p39
sVtypes
p40
(lp41
Vpolitical
p42
aVsublocality
p43
aVsublocality_level_1
p44
asVshort_name
p45
VManhattan
p46
sa(dp47
Vlong_name
p48
VNew York
p49
sVtypes
p50
(lp51
Vlocality
p52
aVpolitical
p53
asVshort_name
p54
VNew York
p55
sa(dp56
Vlong_name
p57
VNew York County
p58
sVtypes
p59
(lp60
Vadministrative_area_level_2
p61
aVpolitical
p62
asVshort_name
p63
VNew York County
p64
sa(dp65
Vlong_name
p66
VNew York
p67
sVtypes
p68
(lp69
Vadministrative_area_level_1
p70
aVpolitical
p71
asVshort_name
p72
VNY
p73
sa(dp74
Vlong_name
p75
VUnited States
p76
sVtypes
p77
(lp78
Vcountry
p79
aVpolitical
p80
asVshort_name
p81
VUS
p82
sa(dp83
Vlong_name
p84
V10001
p85
sVtypes
p86
(lp87
Vpostal_code
p88
asVshort_name
p89
V10001
p90
sasVplace_id
p91
VChIJZ9-HIa9ZwokRofyN1lilh94
p92
sVformatted_address
p93
V125 W 31st St, New York, NY 10001, USA
p94
sVtypes
p95
(lp96
Vestablishment
p97
aVpoint_of_interest
p98
as.