(dp0
Vgeometry
p1
(dp2
Vlocation_type
p3
VAPPROXIMATE
p4
sVbounds
p5
(dp6
Vnortheast
p7
(dp8
Vlat
p9
F41.35038
sVlng
p10
F-72.8601438
ssVsouthwest
p11
(dp12
Vlat
p13
F41.2461968
sVlng
p14
F-72.998048
sssVviewport
p15
(dp16
Vnortheast
p17
(dp18
Vlat
p19
F41.35038
sVlng
p20
F-72.8601438
ssVsouthwest
p21
(dp22
Vlat
p23
F41.2461968
sVlng
p24
F-72.998048
sssVlocation
p25
(dp26
Vlat
p27
F41.308274
sVlng
p28
F-72.9278835
sssVformatted_address
p29
VNew Haven, CT, USA
p30
sVplace_id
p31
VChIJ5XCAOkTY54kR7WSyWcZUo_Y
p32
sVaddress_components
p33
(lp34
(dp35
Vlong_name
p36
VNew Haven
p37
sVtypes
p38
(lp39
Vlocality
p40
aVpolitical
p41
asVshort_name
p42
VNew Haven
p43
sa(dp44
Vlong_name
p45
VNew Haven County
p46
sVtypes
p47
(lp48
Vadministrative_area_level_2
p49
aVpolitical
p50
asVshort_name
p51
VNew Haven County
p52
sa(dp53
Vlong_name
p54
VConnecticut
p55
sVtypes
p56
(lp57
Vadministrative_area_level_1
p58
aVpolitical
p59
asVshort_name
p60
VCT
p61
sa(dp62
Vlong_name
p63
VUnited States
p64
sVtypes
p65
(lp66
Vcountry
p67
aVpolitical
p68
asVshort_name
p69
VUS
p70
sasVpartial_match
p71
I01
sVtypes
p72
(lp73
Vlocality
p74
aVpolitical
p75
as.