(dp0
Vgeometry
p1
(dp2
Vlocation_type
p3
VAPPROXIMATE
p4
sVbounds
p5
(dp6
Vnortheast
p7
(dp8
Vlat
p9
F34.1917221
sVlng
p10
F-89.606313
ssVsouthwest
p11
(dp12
Vlat
p13
F34.1219848
sVlng
p14
F-89.652453
sssVviewport
p15
(dp16
Vnortheast
p17
(dp18
Vlat
p19
F34.1917221
sVlng
p20
F-89.606313
ssVsouthwest
p21
(dp22
Vlat
p23
F34.1219848
sVlng
p24
F-89.652453
sssVlocation
p25
(dp26
Vlat
p27
F34.1514989
sVlng
p28
F-89.63147359999999
sssVformatted_address
p29
VWater Valley, MS 38965, USA
p30
sVplace_id
p31
VChIJNWakzQZqgIgRShgF4OJFky0
p32
sVaddress_components
p33
(lp34
(dp35
Vlong_name
p36
VWater Valley
p37
sVtypes
p38
(lp39
Vlocality
p40
aVpolitical
p41
asVshort_name
p42
VWater Valley
p43
sa(dp44
Vlong_name
p45
VYalobusha County
p46
sVtypes
p47
(lp48
Vadministrative_area_level_2
p49
aVpolitical
p50
asVshort_name
p51
VYalobusha County
p52
sa(dp53
Vlong_name
p54
VMississippi
p55
sVtypes
p56
(lp57
Vadministrative_area_level_1
p58
aVpolitical
p59
asVshort_name
p60
VMS
p61
sa(dp62
Vlong_name
p63
VUnited States
p64
sVtypes
p65
(lp66
Vcountry
p67
aVpolitical
p68
asVshort_name
p69
VUS
p70
sa(dp71
Vlong_name
p72
V38965
p73
sVtypes
p74
(lp75
Vpostal_code
p76
asVshort_name
p77
V38965
p78
sasVpartial_match
p79
I01
sVtypes
p80
(lp81
Vlocality
p82
aVpolitical
p83
as.