(dp0
Vgeometry
p1
(dp2
Vlocation
p3
(dp4
Vlat
p5
F34.2325616
sVlng
p6
F-118.594757
ssVviewport
p7
(dp8
Vnortheast
p9
(dp10
Vlat
p11
F34.23391058029149
sVlng
p12
F-118.5934080197085
ssVsouthwest
p13
(dp14
Vlat
p15
F34.23121261970849
sVlng
p16
F-118.5961059802915
sssVlocation_type
p17
VROOFTOP
p18
ssVaddress_components
p19
(lp20
(dp21
Vlong_name
p22
V8920
p23
sVtypes
p24
(lp25
Vstreet_number
p26
asVshort_name
p27
V8920
p28
sa(dp29
Vlong_name
p30
VEton Avenue
p31
sVtypes
p32
(lp33
Vroute
p34
asVshort_name
p35
VEton Ave
p36
sa(dp37
Vlong_name
p38
VCanoga Park
p39
sVtypes
p40
(lp41
Vneighborhood
p42
aVpolitical
p43
asVshort_name
p44
VCanoga Park
p45
sa(dp46
Vlong_name
p47
VLos Angeles
p48
sVtypes
p49
(lp50
Vlocality
p51
aVpolitical
p52
asVshort_name
p53
VLos Angeles
p54
sa(dp55
Vlong_name
p56
VLos Angeles County
p57
sVtypes
p58
(lp59
Vadministrative_area_level_2
p60
aVpolitical
p61
asVshort_name
p62
VLos Angeles County
p63
sa(dp64
Vlong_name
p65
VCalifornia
p66
sVtypes
p67
(lp68
Vadministrative_area_level_1
p69
aVpolitical
p70
asVshort_name
p71
VCA
p72
sa(dp73
Vlong_name
p74
VUnited States
p75
sVtypes
p76
(lp77
Vcountry
p78
aVpolitical
p79
asVshort_name
p80
VUS
p81
sa(dp82
Vlong_name
p83
V91304
p84
sVtypes
p85
(lp86
Vpostal_code
p87
asVshort_name
p88
V91304
p89
sasVplace_id
p90
VChIJVbwy-Y6cwoARlkMXUs2B_NA
p91
sVformatted_address
p92
V8920 Eton Ave, Canoga Park, CA 91304, USA
p93
sVtypes
p94
(lp95
Vestablishment
p96
aVpoint_of_interest
p97
as.