(dp0
Vgeometry
p1
(dp2
Vlocation
p3
(dp4
Vlat
p5
F33.7178819
sVlng
p6
F-118.0704585
ssVviewport
p7
(dp8
Vnortheast
p9
(dp10
Vlat
p11
F33.7192308802915
sVlng
p12
F-118.0691095197085
ssVsouthwest
p13
(dp14
Vlat
p15
F33.7165329197085
sVlng
p16
F-118.0718074802915
sssVlocation_type
p17
VGEOMETRIC_CENTER
p18
ssVaddress_components
p19
(lp20
(dp21
Vlong_name
p22
VSunset Beach
p23
sVtypes
p24
(lp25
Vneighborhood
p26
aVpolitical
p27
asVshort_name
p28
VSunset Beach
p29
sa(dp30
Vlong_name
p31
VHuntington Beach
p32
sVtypes
p33
(lp34
Vlocality
p35
aVpolitical
p36
asVshort_name
p37
VHuntington Beach
p38
sa(dp39
Vlong_name
p40
VOrange County
p41
sVtypes
p42
(lp43
Vadministrative_area_level_2
p44
aVpolitical
p45
asVshort_name
p46
VOrange County
p47
sa(dp48
Vlong_name
p49
VCalifornia
p50
sVtypes
p51
(lp52
Vadministrative_area_level_1
p53
aVpolitical
p54
asVshort_name
p55
VCA
p56
sa(dp57
Vlong_name
p58
VUnited States
p59
sVtypes
p60
(lp61
Vcountry
p62
aVpolitical
p63
asVshort_name
p64
VUS
p65
sa(dp66
Vlong_name
p67
V90742
p68
sVtypes
p69
(lp70
Vpostal_code
p71
asVshort_name
p72
V90742
p73
sasVplace_id
p74
VChIJ06nk_6Uo3YARdp_SxNNt6ls
p75
sVformatted_address
p76
VSunset Beach, CA 90742, USA
p77
sVtypes
p78
(lp79
Velectronics_store
p80
aVestablishment
p81
aVhome_goods_store
p82
aVpoint_of_interest
p83
aVstore
p84
as.