(dp0
Vgeometry
p1
(dp2
Vlocation
p3
(dp4
Vlat
p5
F54.6455876
sVlng
p6
F-3.5579729
ssVviewport
p7
(dp8
Vnortheast
p9
(dp10
Vlat
p11
F54.6469365802915
sVlng
p12
F-3.556623919708498
ssVsouthwest
p13
(dp14
Vlat
p15
F54.6442386197085
sVlng
p16
F-3.559321880291502
sssVlocation_type
p17
VGEOMETRIC_CENTER
p18
ssVaddress_components
p19
(lp20
(dp21
Vlong_name
p22
VWorkington
p23
sVtypes
p24
(lp25
Vpostal_town
p26
asVshort_name
p27
VWorkington
p28
sa(dp29
Vlong_name
p30
VCumbria
p31
sVtypes
p32
(lp33
Vadministrative_area_level_2
p34
aVpolitical
p35
asVshort_name
p36
VCumbria
p37
sa(dp38
Vlong_name
p39
VEngland
p40
sVtypes
p41
(lp42
Vadministrative_area_level_1
p43
aVpolitical
p44
asVshort_name
p45
VEngland
p46
sa(dp47
Vlong_name
p48
VUnited Kingdom
p49
sVtypes
p50
(lp51
Vcountry
p52
aVpolitical
p53
asVshort_name
p54
VGB
p55
sa(dp56
Vlong_name
p57
VCA14 3GJ
p58
sVtypes
p59
(lp60
Vpostal_code
p61
asVshort_name
p62
VCA14 3GJ
p63
sasVplace_id
p64
VChIJQzVwPAosY0gRGd7GVIhKmXg
p65
sVformatted_address
p66
VWorkington CA14 3GJ, UK
p67
sVtypes
p68
(lp69
Vestablishment
p70
aVpoint_of_interest
p71
as.