(dp0
Vgeometry
p1
(dp2
Vlocation
p3
(dp4
Vlat
p5
F36.8711119
sVlng
p6
F-94.879363
ssVviewport
p7
(dp8
Vnortheast
p9
(dp10
Vlat
p11
F36.87246088029149
sVlng
p12
F-94.8780140197085
ssVsouthwest
p13
(dp14
Vlat
p15
F36.86976291970849
sVlng
p16
F-94.88071198029151
sssVlocation_type
p17
VROOFTOP
p18
ssVaddress_components
p19
(lp20
(dp21
Vlong_name
p22
V130
p23
sVtypes
p24
(lp25
Vstreet_number
p26
asVshort_name
p27
V130
p28
sa(dp29
Vlong_name
p30
V3rd Avenue Southwest
p31
sVtypes
p32
(lp33
Vroute
p34
asVshort_name
p35
V3rd Ave SW
p36
sa(dp37
Vlong_name
p38
VMiami
p39
sVtypes
p40
(lp41
Vlocality
p42
aVpolitical
p43
asVshort_name
p44
VMiami
p45
sa(dp46
Vlong_name
p47
VOttawa County
p48
sVtypes
p49
(lp50
Vadministrative_area_level_2
p51
aVpolitical
p52
asVshort_name
p53
VOttawa County
p54
sa(dp55
Vlong_name
p56
VOklahoma
p57
sVtypes
p58
(lp59
Vadministrative_area_level_1
p60
aVpolitical
p61
asVshort_name
p62
VOK
p63
sa(dp64
Vlong_name
p65
VUnited States
p66
sVtypes
p67
(lp68
Vcountry
p69
aVpolitical
p70
asVshort_name
p71
VUS
p72
sa(dp73
Vlong_name
p74
V74354
p75
sVtypes
p76
(lp77
Vpostal_code
p78
asVshort_name
p79
V74354
p80
sa(dp81
Vlong_name
p82
V7629
p83
sVtypes
p84
(lp85
Vpostal_code_suffix
p86
asVshort_name
p87
V7629
p88
sasVplace_id
p89
VChIJy1NsPewXyIcRrslsvLYiUtI
p90
sVformatted_address
p91
V130 3rd Ave SW, Miami, OK 74354, USA
p92
sVtypes
p93
(lp94
Vdoctor
p95
aVestablishment
p96
aVhealth
p97
aVpoint_of_interest
p98
as.