(dp0
Vgeometry
p1
(dp2
Vlocation
p3
(dp4
Vlat
p5
F33.67537799999999
sVlng
p6
F-112.027048
ssVviewport
p7
(dp8
Vnortheast
p9
(dp10
Vlat
p11
F33.6767269802915
sVlng
p12
F-112.0256990197085
ssVsouthwest
p13
(dp14
Vlat
p15
F33.6740290197085
sVlng
p16
F-112.0283969802915
sssVlocation_type
p17
VROOFTOP
p18
ssVformatted_address
p19
V20819 N 25th Pl, Phoenix, AZ 85050, USA
p20
sVplace_id
p21
VChIJo4U_YzdwK4cRry9NWRt03ZQ
p22
sVaddress_components
p23
(lp24
(dp25
Vlong_name
p26
V20819
p27
sVtypes
p28
(lp29
Vstreet_number
p30
asVshort_name
p31
V20819
p32
sa(dp33
Vlong_name
p34
VNorth 25th Place
p35
sVtypes
p36
(lp37
Vroute
p38
asVshort_name
p39
VN 25th Pl
p40
sa(dp41
Vlong_name
p42
VParadise Valley Village
p43
sVtypes
p44
(lp45
Vneighborhood
p46
aVpolitical
p47
asVshort_name
p48
VParadise Valley Village
p49
sa(dp50
Vlong_name
p51
VPhoenix
p52
sVtypes
p53
(lp54
Vlocality
p55
aVpolitical
p56
asVshort_name
p57
VPhoenix
p58
sa(dp59
Vlong_name
p60
VMaricopa County
p61
sVtypes
p62
(lp63
Vadministrative_area_level_2
p64
aVpolitical
p65
asVshort_name
p66
VMaricopa County
p67
sa(dp68
Vlong_name
p69
VArizona
p70
sVtypes
p71
(lp72
Vadministrative_area_level_1
p73
aVpolitical
p74
asVshort_name
p75
VAZ
p76
sa(dp77
Vlong_name
p78
VUnited States
p79
sVtypes
p80
(lp81
Vcountry
p82
aVpolitical
p83
asVshort_name
p84
VUS
p85
sa(dp86
Vlong_name
p87
V85050
p88
sVtypes
p89
(lp90
Vpostal_code
p91
asVshort_name
p92
V85050
p93
sa(dp94
Vlong_name
p95
V4610
p96
sVtypes
p97
(lp98
Vpostal_code_suffix
p99
asVshort_name
p100
V4610
p101
sasVpartial_match
p102
I01
sVtypes
p103
(lp104
Vestablishment
p105
aVhome_goods_store
p106
aVpoint_of_interest
p107
aVstore
p108
as.