(dp0
Vgeometry
p1
(dp2
Vlocation
p3
(dp4
Vlat
p5
F33.7882965
sVlng
p6
F-117.8755058
ssVviewport
p7
(dp8
Vnortheast
p9
(dp10
Vlat
p11
F33.7896454802915
sVlng
p12
F-117.8741568197085
ssVsouthwest
p13
(dp14
Vlat
p15
F33.78694751970851
sVlng
p16
F-117.8768547802915
sssVlocation_type
p17
VROOFTOP
p18
ssVaddress_components
p19
(lp20
(dp21
Vlong_name
p22
V2133
p23
sVtypes
p24
(lp25
Vstreet_number
p26
asVshort_name
p27
V2133
p28
sa(dp29
Vlong_name
p30
VWest Chapman Avenue
p31
sVtypes
p32
(lp33
Vroute
p34
asVshort_name
p35
VW Chapman Ave
p36
sa(dp37
Vlong_name
p38
VOrange
p39
sVtypes
p40
(lp41
Vlocality
p42
aVpolitical
p43
asVshort_name
p44
VOrange
p45
sa(dp46
Vlong_name
p47
VOrange County
p48
sVtypes
p49
(lp50
Vadministrative_area_level_2
p51
aVpolitical
p52
asVshort_name
p53
VOrange County
p54
sa(dp55
Vlong_name
p56
VCalifornia
p57
sVtypes
p58
(lp59
Vadministrative_area_level_1
p60
aVpolitical
p61
asVshort_name
p62
VCA
p63
sa(dp64
Vlong_name
p65
VUnited States
p66
sVtypes
p67
(lp68
Vcountry
p69
aVpolitical
p70
asVshort_name
p71
VUS
p72
sa(dp73
Vlong_name
p74
V92868
p75
sVtypes
p76
(lp77
Vpostal_code
p78
asVshort_name
p79
V92868
p80
sa(dp81
Vlong_name
p82
V2329
p83
sVtypes
p84
(lp85
Vpostal_code_suffix
p86
asVshort_name
p87
V2329
p88
sasVplace_id
p89
VChIJxRPQcNXZ3IARVl8Z6y08bSE
p90
sVformatted_address
p91
V2133 W Chapman Ave, Orange, CA 92868, USA
p92
sVtypes
p93
(lp94
Vestablishment
p95
aVpoint_of_interest
p96
as.