(dp0
Vgeometry
p1
(dp2
Vlocation_type
p3
VGEOMETRIC_CENTER
p4
sVbounds
p5
(dp6
Vnortheast
p7
(dp8
Vlat
p9
F34.2219917
sVlng
p10
F-118.6413599
ssVsouthwest
p11
(dp12
Vlat
p13
F34.21973980000001
sVlng
p14
F-118.6419884
sssVviewport
p15
(dp16
Vnortheast
p17
(dp18
Vlat
p19
F34.2222147302915
sVlng
p20
F-118.6403251697085
ssVsouthwest
p21
(dp22
Vlat
p23
F34.21951676970851
sVlng
p24
F-118.6430231302915
sssVlocation
p25
(dp26
Vlat
p27
F34.2207053
sVlng
p28
F-118.6418161
sssVformatted_address
p29
VFable Ave, Los Angeles, CA 91304, USA
p30
sVplace_id
p31
VChIJe3YVYA6dwoARlbzuzGJujDw
p32
sVaddress_components
p33
(lp34
(dp35
Vlong_name
p36
VFable Avenue
p37
sVtypes
p38
(lp39
Vroute
p40
asVshort_name
p41
VFable Ave
p42
sa(dp43
Vlong_name
p44
VWest Hills
p45
sVtypes
p46
(lp47
Vneighborhood
p48
aVpolitical
p49
asVshort_name
p50
VWest Hills
p51
sa(dp52
Vlong_name
p53
VLos Angeles
p54
sVtypes
p55
(lp56
Vlocality
p57
aVpolitical
p58
asVshort_name
p59
VLos Angeles
p60
sa(dp61
Vlong_name
p62
VLos Angeles County
p63
sVtypes
p64
(lp65
Vadministrative_area_level_2
p66
aVpolitical
p67
asVshort_name
p68
VLos Angeles County
p69
sa(dp70
Vlong_name
p71
VCalifornia
p72
sVtypes
p73
(lp74
Vadministrative_area_level_1
p75
aVpolitical
p76
asVshort_name
p77
VCA
p78
sa(dp79
Vlong_name
p80
VUnited States
p81
sVtypes
p82
(lp83
Vcountry
p84
aVpolitical
p85
asVshort_name
p86
VUS
p87
sa(dp88
Vlong_name
p89
V91304
p90
sVtypes
p91
(lp92
Vpostal_code
p93
asVshort_name
p94
V91304
p95
sasVpartial_match
p96
I01
sVtypes
p97
(lp98
Vroute
p99
as.