(dp0
Vgeometry
p1
(dp2
Vlocation
p3
(dp4
Vlat
p5
F43.644125
sVlng
p6
F-79.39581299999999
ssVviewport
p7
(dp8
Vnortheast
p9
(dp10
Vlat
p11
F43.64547398029149
sVlng
p12
F-79.3944640197085
ssVsouthwest
p13
(dp14
Vlat
p15
F43.6427760197085
sVlng
p16
F-79.3971619802915
sssVlocation_type
p17
VROOFTOP
p18
ssVformatted_address
p19
V400 Wellington St W #3, Toronto, ON M5V 0B5, Canada
p20
sVplace_id
p21
VChIJwacAhq80K4gR7t0h_o8EuZE
p22
sVaddress_components
p23
(lp24
(dp25
Vlong_name
p26
V3
p27
sVtypes
p28
(lp29
Vsubpremise
p30
asVshort_name
p31
g27
sa(dp32
Vlong_name
p33
V400
p34
sVtypes
p35
(lp36
Vstreet_number
p37
asVshort_name
p38
V400
p39
sa(dp40
Vlong_name
p41
VWellington Street West
p42
sVtypes
p43
(lp44
Vroute
p45
asVshort_name
p46
VWellington St W
p47
sa(dp48
Vlong_name
p49
VOld Toronto
p50
sVtypes
p51
(lp52
Vpolitical
p53
aVsublocality
p54
aVsublocality_level_1
p55
asVshort_name
p56
VOld Toronto
p57
sa(dp58
Vlong_name
p59
VToronto
p60
sVtypes
p61
(lp62
Vlocality
p63
aVpolitical
p64
asVshort_name
p65
VToronto
p66
sa(dp67
Vlong_name
p68
VToronto Division
p69
sVtypes
p70
(lp71
Vadministrative_area_level_2
p72
aVpolitical
p73
asVshort_name
p74
VToronto Division
p75
sa(dp76
Vlong_name
p77
VOntario
p78
sVtypes
p79
(lp80
Vadministrative_area_level_1
p81
aVpolitical
p82
asVshort_name
p83
VON
p84
sa(dp85
Vlong_name
p86
VCanada
p87
sVtypes
p88
(lp89
Vcountry
p90
aVpolitical
p91
asVshort_name
p92
VCA
p93
sa(dp94
Vlong_name
p95
VM5V 0B5
p96
sVtypes
p97
(lp98
Vpostal_code
p99
asVshort_name
p100
VM5V 0B5
p101
sasVpartial_match
p102
I01
sVtypes
p103
(lp104
Vbeauty_salon
p105
aVestablishment
p106
aVhair_care
p107
aVpoint_of_interest
p108
as.