(dp0
Vgeometry
p1
(dp2
Vlocation
p3
(dp4
Vlat
p5
F42.4182662
sVlng
p6
F-71.07432279999999
ssVviewport
p7
(dp8
Vnortheast
p9
(dp10
Vlat
p11
F42.41961518029149
sVlng
p12
F-71.0729738197085
ssVsouthwest
p13
(dp14
Vlat
p15
F42.4169172197085
sVlng
p16
F-71.0756717802915
sssVlocation_type
p17
VROOFTOP
p18
ssVaddress_components
p19
(lp20
(dp21
Vlong_name
p22
V219
p23
sVtypes
p24
(lp25
Vstreet_number
p26
asVshort_name
p27
V219
p28
sa(dp29
Vlong_name
p30
VMedford Street
p31
sVtypes
p32
(lp33
Vroute
p34
asVshort_name
p35
VMedford St
p36
sa(dp37
Vlong_name
p38
VMalden
p39
sVtypes
p40
(lp41
Vlocality
p42
aVpolitical
p43
asVshort_name
p44
VMalden
p45
sa(dp46
Vlong_name
p47
VMiddlesex County
p48
sVtypes
p49
(lp50
Vadministrative_area_level_2
p51
aVpolitical
p52
asVshort_name
p53
VMiddlesex County
p54
sa(dp55
Vlong_name
p56
VMassachusetts
p57
sVtypes
p58
(lp59
Vadministrative_area_level_1
p60
aVpolitical
p61
asVshort_name
p62
VMA
p63
sa(dp64
Vlong_name
p65
VUnited States
p66
sVtypes
p67
(lp68
Vcountry
p69
aVpolitical
p70
asVshort_name
p71
VUS
p72
sa(dp73
Vlong_name
p74
V02148
p75
sVtypes
p76
(lp77
Vpostal_code
p78
asVshort_name
p79
V02148
p80
sa(dp81
Vlong_name
p82
V7301
p83
sVtypes
p84
(lp85
Vpostal_code_suffix
p86
asVshort_name
p87
V7301
p88
sasVplace_id
p89
VChIJE_4_3mlx44kRiywbw9W-itM
p90
sVformatted_address
p91
V219 Medford St, Malden, MA 02148, USA
p92
sVtypes
p93
(lp94
Vchurch
p95
aVestablishment
p96
aVplace_of_worship
p97
aVpoint_of_interest
p98
as.