(dp0
Vgeometry
p1
(dp2
Vlocation_type
p3
VAPPROXIMATE
p4
sVbounds
p5
(dp6
Vnortheast
p7
(dp8
Vlat
p9
F51.6723432
sVlng
p10
F0.148271
ssVsouthwest
p11
(dp12
Vlat
p13
F51.38494009999999
sVlng
p14
F-0.3514683
sssVviewport
p15
(dp16
Vnortheast
p17
(dp18
Vlat
p19
F51.6723432
sVlng
p20
F0.148271
ssVsouthwest
p21
(dp22
Vlat
p23
F51.38494009999999
sVlng
p24
F-0.3514683
sssVlocation
p25
(dp26
Vlat
p27
F51.5073509
sVlng
p28
F-0.1277583
sssVformatted_address
p29
VLondon, UK
p30
sVplace_id
p31
VChIJdd4hrwug2EcRmSrV3Vo6llI
p32
sVaddress_components
p33
(lp34
(dp35
Vlong_name
p36
VLondon
p37
sVtypes
p38
(lp39
Vlocality
p40
aVpolitical
p41
asVshort_name
p42
VLondon
p43
sa(dp44
Vlong_name
p45
VLondon
p46
sVtypes
p47
(lp48
Vpostal_town
p49
asVshort_name
p50
VLondon
p51
sa(dp52
Vlong_name
p53
VGreater London
p54
sVtypes
p55
(lp56
Vadministrative_area_level_2
p57
aVpolitical
p58
asVshort_name
p59
VGreater London
p60
sa(dp61
Vlong_name
p62
VEngland
p63
sVtypes
p64
(lp65
Vadministrative_area_level_1
p66
aVpolitical
p67
asVshort_name
p68
VEngland
p69
sa(dp70
Vlong_name
p71
VUnited Kingdom
p72
sVtypes
p73
(lp74
Vcountry
p75
aVpolitical
p76
asVshort_name
p77
VGB
p78
sasVpartial_match
p79
I01
sVtypes
p80
(lp81
Vlocality
p82
aVpolitical
p83
as.