(dp0
Vgeometry
p1
(dp2
Vlocation
p3
(dp4
Vlat
p5
F33.7766994
sVlng
p6
F-84.3968761
ssVviewport
p7
(dp8
Vnortheast
p9
(dp10
Vlat
p11
F33.77804838029149
sVlng
p12
F-84.3955271197085
ssVsouthwest
p13
(dp14
Vlat
p15
F33.7753504197085
sVlng
p16
F-84.39822508029151
sssVlocation_type
p17
VROOFTOP
p18
ssVformatted_address
p19
V280 Ferst Dr NW, Atlanta, GA 30313, USA
p20
sVplace_id
p21
VChIJxSTyDYoE9YgRRfNbtuBkVwo
p22
sVaddress_components
p23
(lp24
(dp25
Vlong_name
p26
V280
p27
sVtypes
p28
(lp29
Vstreet_number
p30
asVshort_name
p31
V280
p32
sa(dp33
Vlong_name
p34
VFerst Drive Northwest
p35
sVtypes
p36
(lp37
Vroute
p38
asVshort_name
p39
VFerst Dr NW
p40
sa(dp41
Vlong_name
p42
VGeorgia Tech
p43
sVtypes
p44
(lp45
Vneighborhood
p46
aVpolitical
p47
asVshort_name
p48
VGeorgia Tech
p49
sa(dp50
Vlong_name
p51
VAtlanta
p52
sVtypes
p53
(lp54
Vlocality
p55
aVpolitical
p56
asVshort_name
p57
VAtlanta
p58
sa(dp59
Vlong_name
p60
VFulton County
p61
sVtypes
p62
(lp63
Vadministrative_area_level_2
p64
aVpolitical
p65
asVshort_name
p66
VFulton County
p67
sa(dp68
Vlong_name
p69
VGeorgia
p70
sVtypes
p71
(lp72
Vadministrative_area_level_1
p73
aVpolitical
p74
asVshort_name
p75
VGA
p76
sa(dp77
Vlong_name
p78
VUnited States
p79
sVtypes
p80
(lp81
Vcountry
p82
aVpolitical
p83
asVshort_name
p84
VUS
p85
sa(dp86
Vlong_name
p87
V30313
p88
sVtypes
p89
(lp90
Vpostal_code
p91
asVshort_name
p92
V30313
p93
sasVpartial_match
p94
I01
sVtypes
p95
(lp96
Vestablishment
p97
aVpoint_of_interest
p98
aVuniversity
p99
as.