(dp0
Vgeometry
p1
(dp2
Vlocation
p3
(dp4
Vlat
p5
F40.759967
sVlng
p6
F-73.99111839999999
ssVviewport
p7
(dp8
Vnortheast
p9
(dp10
Vlat
p11
F40.7613159802915
sVlng
p12
F-73.98976941970848
ssVsouthwest
p13
(dp14
Vlat
p15
F40.7586180197085
sVlng
p16
F-73.99246738029149
sssVlocation_type
p17
VROOFTOP
p18
ssVaddress_components
p19
(lp20
(dp21
Vlong_name
p22
V407
p23
sVtypes
p24
(lp25
Vsubpremise
p26
asVshort_name
p27
V407
p28
sa(dp29
Vlong_name
p30
V630
p31
sVtypes
p32
(lp33
Vstreet_number
p34
asVshort_name
p35
V630
p36
sa(dp37
Vlong_name
p38
V9th Avenue
p39
sVtypes
p40
(lp41
Vroute
p42
asVshort_name
p43
V9th Ave
p44
sa(dp45
Vlong_name
p46
VManhattan
p47
sVtypes
p48
(lp49
Vpolitical
p50
aVsublocality
p51
aVsublocality_level_1
p52
asVshort_name
p53
VManhattan
p54
sa(dp55
Vlong_name
p56
VNew York
p57
sVtypes
p58
(lp59
Vlocality
p60
aVpolitical
p61
asVshort_name
p62
VNew York
p63
sa(dp64
Vlong_name
p65
VNew York County
p66
sVtypes
p67
(lp68
Vadministrative_area_level_2
p69
aVpolitical
p70
asVshort_name
p71
VNew York County
p72
sa(dp73
Vlong_name
p74
VNew York
p75
sVtypes
p76
(lp77
Vadministrative_area_level_1
p78
aVpolitical
p79
asVshort_name
p80
VNY
p81
sa(dp82
Vlong_name
p83
VUnited States
p84
sVtypes
p85
(lp86
Vcountry
p87
aVpolitical
p88
asVshort_name
p89
VUS
p90
sa(dp91
Vlong_name
p92
V10036
p93
sVtypes
p94
(lp95
Vpostal_code
p96
asVshort_name
p97
V10036
p98
sa(dp99
Vlong_name
p100
V4750
p101
sVtypes
p102
(lp103
Vpostal_code_suffix
p104
asVshort_name
p105
V4750
p106
sasVplace_id
p107
VChIJ0-fPyVNYwokRhd6aLipBD9k
p108
sVformatted_address
p109
V630 9th Ave #407, New York, NY 10036, USA
p110
sVtypes
p111
(lp112
Velectronics_store
p113
aVestablishment
p114
aVhome_goods_store
p115
aVpoint_of_interest
p116
aVstore
p117
as.