(dp0
Vgeometry
p1
(dp2
Vlocation
p3
(dp4
Vlat
p5
F41.8528248
sVlng
p6
F-87.6413003
ssVviewport
p7
(dp8
Vnortheast
p9
(dp10
Vlat
p11
F41.8541737802915
sVlng
p12
F-87.6399513197085
ssVsouthwest
p13
(dp14
Vlat
p15
F41.8514758197085
sVlng
p16
F-87.64264928029151
sssVlocation_type
p17
VGEOMETRIC_CENTER
p18
ssVaddress_components
p19
(lp20
(dp21
Vlong_name
p22
VWest Cermak Road
p23
sVtypes
p24
(lp25
Vroute
p26
asVshort_name
p27
VW Cermak Rd
p28
sa(dp29
Vlong_name
p30
VEast Pilsen
p31
sVtypes
p32
(lp33
Vneighborhood
p34
aVpolitical
p35
asVshort_name
p36
VEast Pilsen
p37
sa(dp38
Vlong_name
p39
VChicago
p40
sVtypes
p41
(lp42
Vlocality
p43
aVpolitical
p44
asVshort_name
p45
VChicago
p46
sa(dp47
Vlong_name
p48
VCook County
p49
sVtypes
p50
(lp51
Vadministrative_area_level_2
p52
aVpolitical
p53
asVshort_name
p54
VCook County
p55
sa(dp56
Vlong_name
p57
VIllinois
p58
sVtypes
p59
(lp60
Vadministrative_area_level_1
p61
aVpolitical
p62
asVshort_name
p63
VIL
p64
sa(dp65
Vlong_name
p66
VUnited States
p67
sVtypes
p68
(lp69
Vcountry
p70
aVpolitical
p71
asVshort_name
p72
VUS
p73
sa(dp74
Vlong_name
p75
V60616
p76
sVtypes
p77
(lp78
Vpostal_code
p79
asVshort_name
p80
V60616
p81
sasVplace_id
p82
VChIJW6hX-l4sDogR4mlHT9wPPgE
p83
sVformatted_address
p84
VW Cermak Rd, Chicago, IL 60616, USA
p85
sVtypes
p86
(lp87
Velectronics_store
p88
aVestablishment
p89
aVhome_goods_store
p90
aVpoint_of_interest
p91
aVstore
p92
as.