(dp0
Vgeometry
p1
(dp2
Vlocation
p3
(dp4
Vlat
p5
F41.219792
sVlng
p6
F-73.719795
ssVviewport
p7
(dp8
Vnortheast
p9
(dp10
Vlat
p11
F41.22114098029149
sVlng
p12
F-73.71844601970851
ssVsouthwest
p13
(dp14
Vlat
p15
F41.2184430197085
sVlng
p16
F-73.72114398029152
sssVlocation_type
p17
VROOFTOP
p18
ssVaddress_components
p19
(lp20
(dp21
Vlong_name
p22
V333
p23
sVtypes
p24
(lp25
Vstreet_number
p26
asVshort_name
p27
V333
p28
sa(dp29
Vlong_name
p30
VNorth Bedford Road
p31
sVtypes
p32
(lp33
Vroute
p34
asVshort_name
p35
VN Bedford Rd
p36
sa(dp37
Vlong_name
p38
VMount Kisco
p39
sVtypes
p40
(lp41
Vlocality
p42
aVpolitical
p43
asVshort_name
p44
VMt Kisco
p45
sa(dp46
Vlong_name
p47
VMount Kisco
p48
sVtypes
p49
(lp50
Vadministrative_area_level_3
p51
aVpolitical
p52
asVshort_name
p53
VMt Kisco
p54
sa(dp55
Vlong_name
p56
VWestchester County
p57
sVtypes
p58
(lp59
Vadministrative_area_level_2
p60
aVpolitical
p61
asVshort_name
p62
VWestchester County
p63
sa(dp64
Vlong_name
p65
VNew York
p66
sVtypes
p67
(lp68
Vadministrative_area_level_1
p69
aVpolitical
p70
asVshort_name
p71
VNY
p72
sa(dp73
Vlong_name
p74
VUnited States
p75
sVtypes
p76
(lp77
Vcountry
p78
aVpolitical
p79
asVshort_name
p80
VUS
p81
sa(dp82
Vlong_name
p83
V10549
p84
sVtypes
p85
(lp86
Vpostal_code
p87
asVshort_name
p88
V10549
p89
sasVplace_id
p90
VChIJsRIvE3K6wokRjRI0pPMQ1Ss
p91
sVformatted_address
p92
V333 N Bedford Rd, Mt Kisco, NY 10549, USA
p93
sVtypes
p94
(lp95
Vbowling_alley
p96
aVestablishment
p97
aVpoint_of_interest
p98
as.