(dp0
Vgeometry
p1
(dp2
Vlocation
p3
(dp4
Vlat
p5
F34.0301836
sVlng
p6
F-118.2369239
ssVviewport
p7
(dp8
Vnortheast
p9
(dp10
Vlat
p11
F34.0315325802915
sVlng
p12
F-118.2355749197085
ssVsouthwest
p13
(dp14
Vlat
p15
F34.0288346197085
sVlng
p16
F-118.2382728802915
sssVlocation_type
p17
VROOFTOP
p18
ssVaddress_components
p19
(lp20
(dp21
Vlong_name
p22
V31
p23
sVtypes
p24
(lp25
Vsubpremise
p26
asVshort_name
p27
V31
p28
sa(dp29
Vlong_name
p30
V1925
p31
sVtypes
p32
(lp33
Vstreet_number
p34
asVshort_name
p35
V1925
p36
sa(dp37
Vlong_name
p38
VEast 8th Street
p39
sVtypes
p40
(lp41
Vroute
p42
asVshort_name
p43
VE 8th St
p44
sa(dp45
Vlong_name
p46
VCentral LA
p47
sVtypes
p48
(lp49
Vneighborhood
p50
aVpolitical
p51
asVshort_name
p52
VCentral LA
p53
sa(dp54
Vlong_name
p55
VLos Angeles
p56
sVtypes
p57
(lp58
Vlocality
p59
aVpolitical
p60
asVshort_name
p61
VLos Angeles
p62
sa(dp63
Vlong_name
p64
VLos Angeles County
p65
sVtypes
p66
(lp67
Vadministrative_area_level_2
p68
aVpolitical
p69
asVshort_name
p70
VLos Angeles County
p71
sa(dp72
Vlong_name
p73
VCalifornia
p74
sVtypes
p75
(lp76
Vadministrative_area_level_1
p77
aVpolitical
p78
asVshort_name
p79
VCA
p80
sa(dp81
Vlong_name
p82
VUnited States
p83
sVtypes
p84
(lp85
Vcountry
p86
aVpolitical
p87
asVshort_name
p88
VUS
p89
sa(dp90
Vlong_name
p91
V90021
p92
sVtypes
p93
(lp94
Vpostal_code
p95
asVshort_name
p96
V90021
p97
sa(dp98
Vlong_name
p99
V2443
p100
sVtypes
p101
(lp102
Vpostal_code_suffix
p103
asVshort_name
p104
V2443
p105
sasVplace_id
p106
VChIJY1XdDCfGwoAR60g_O_63ucQ
p107
sVformatted_address
p108
V1925 E 8th St #31, Los Angeles, CA 90021, USA
p109
sVtypes
p110
(lp111
Vestablishment
p112
aVpoint_of_interest
p113
aVstore
p114
as.