(dp0
Vgeometry
p1
(dp2
Vlocation
p3
(dp4
Vlat
p5
F33.8302833
sVlng
p6
F-118.2920825
ssVviewport
p7
(dp8
Vnortheast
p9
(dp10
Vlat
p11
F33.8316322802915
sVlng
p12
F-118.2907335197085
ssVsouthwest
p13
(dp14
Vlat
p15
F33.8289343197085
sVlng
p16
F-118.2934314802915
sssVlocation_type
p17
VROOFTOP
p18
ssVaddress_components
p19
(lp20
(dp21
Vlong_name
p22
V1000
p23
sVtypes
p24
(lp25
Vstreet_number
p26
asVshort_name
p27
V1000
p28
sa(dp29
Vlong_name
p30
VWest Carson Street
p31
sVtypes
p32
(lp33
Vroute
p34
asVshort_name
p35
VW Carson St
p36
sa(dp37
Vlong_name
p38
VTorrance
p39
sVtypes
p40
(lp41
Vlocality
p42
aVpolitical
p43
asVshort_name
p44
VTorrance
p45
sa(dp46
Vlong_name
p47
VLos Angeles County
p48
sVtypes
p49
(lp50
Vadministrative_area_level_2
p51
aVpolitical
p52
asVshort_name
p53
VLos Angeles County
p54
sa(dp55
Vlong_name
p56
VCalifornia
p57
sVtypes
p58
(lp59
Vadministrative_area_level_1
p60
aVpolitical
p61
asVshort_name
p62
VCA
p63
sa(dp64
Vlong_name
p65
VUnited States
p66
sVtypes
p67
(lp68
Vcountry
p69
aVpolitical
p70
asVshort_name
p71
VUS
p72
sa(dp73
Vlong_name
p74
V90509
p75
sVtypes
p76
(lp77
Vpostal_code
p78
asVshort_name
p79
V90509
p80
sasVplace_id
p81
VChIJK77bZWc13YARKaLHe_EC16s
p82
sVformatted_address
p83
V1000 W Carson St, Torrance, CA 90509, USA
p84
sVtypes
p85
(lp86
Vestablishment
p87
aVhospital
p88
aVpoint_of_interest
p89
as.