(dp0
Vgeometry
p1
(dp2
Vlocation_type
p3
VAPPROXIMATE
p4
sVbounds
p5
(dp6
Vnortheast
p7
(dp8
Vlat
p9
F34.111236
sVlng
p10
F-118.2840872
ssVsouthwest
p11
(dp12
Vlat
p13
F34.0762656
sVlng
p14
F-118.368869
sssVviewport
p15
(dp16
Vnortheast
p17
(dp18
Vlat
p19
F34.111236
sVlng
p20
F-118.2840872
ssVsouthwest
p21
(dp22
Vlat
p23
F34.0762656
sVlng
p24
F-118.368869
sssVlocation
p25
(dp26
Vlat
p27
F34.0928092
sVlng
p28
F-118.3286614
sssVformatted_address
p29
VHollywood, Los Angeles, CA, USA
p30
sVplace_id
p31
VChIJv3lSBAe_woAR5Pq9l2eaevY
p32
sVaddress_components
p33
(lp34
(dp35
Vlong_name
p36
VHollywood
p37
sVtypes
p38
(lp39
Vneighborhood
p40
aVpolitical
p41
asVshort_name
p42
VHollywood
p43
sa(dp44
Vlong_name
p45
VLos Angeles
p46
sVtypes
p47
(lp48
Vlocality
p49
aVpolitical
p50
asVshort_name
p51
VLos Angeles
p52
sa(dp53
Vlong_name
p54
VLos Angeles County
p55
sVtypes
p56
(lp57
Vadministrative_area_level_2
p58
aVpolitical
p59
asVshort_name
p60
VLos Angeles County
p61
sa(dp62
Vlong_name
p63
VCalifornia
p64
sVtypes
p65
(lp66
Vadministrative_area_level_1
p67
aVpolitical
p68
asVshort_name
p69
VCA
p70
sa(dp71
Vlong_name
p72
VUnited States
p73
sVtypes
p74
(lp75
Vcountry
p76
aVpolitical
p77
asVshort_name
p78
VUS
p79
sasVpartial_match
p80
I01
sVtypes
p81
(lp82
Vneighborhood
p83
aVpolitical
p84
as.