(dp0
Vgeometry
p1
(dp2
Vlocation
p3
(dp4
Vlat
p5
F41.2562573
sVlng
p6
F-81.87962689999999
ssVviewport
p7
(dp8
Vnortheast
p9
(dp10
Vlat
p11
F41.2576062802915
sVlng
p12
F-81.87827791970848
ssVsouthwest
p13
(dp14
Vlat
p15
F41.2549083197085
sVlng
p16
F-81.88097588029149
sssVlocation_type
p17
VROOFTOP
p18
ssVaddress_components
p19
(lp20
(dp21
Vlong_name
p22
V708
p23
sVtypes
p24
(lp25
Vstreet_number
p26
asVshort_name
p27
V708
p28
sa(dp29
Vlong_name
p30
VMarks Road
p31
sVtypes
p32
(lp33
Vroute
p34
asVshort_name
p35
VMarks Rd
p36
sa(dp37
Vlong_name
p38
VValley City
p39
sVtypes
p40
(lp41
Vlocality
p42
aVpolitical
p43
asVshort_name
p44
VValley City
p45
sa(dp46
Vlong_name
p47
VLiverpool Township
p48
sVtypes
p49
(lp50
Vadministrative_area_level_3
p51
aVpolitical
p52
asVshort_name
p53
VLiverpool Township
p54
sa(dp55
Vlong_name
p56
VMedina County
p57
sVtypes
p58
(lp59
Vadministrative_area_level_2
p60
aVpolitical
p61
asVshort_name
p62
VMedina County
p63
sa(dp64
Vlong_name
p65
VOhio
p66
sVtypes
p67
(lp68
Vadministrative_area_level_1
p69
aVpolitical
p70
asVshort_name
p71
VOH
p72
sa(dp73
Vlong_name
p74
VUnited States
p75
sVtypes
p76
(lp77
Vcountry
p78
aVpolitical
p79
asVshort_name
p80
VUS
p81
sa(dp82
Vlong_name
p83
V44280
p84
sVtypes
p85
(lp86
Vpostal_code
p87
asVshort_name
p88
V44280
p89
sasVplace_id
p90
VChIJuyd-_Gi_MIgRYN8FNJAItyQ
p91
sVformatted_address
p92
V708 Marks Rd, Valley City, OH 44280, USA
p93
sVtypes
p94
(lp95
Vclothing_store
p96
aVelectronics_store
p97
aVestablishment
p98
aVhome_goods_store
p99
aVpoint_of_interest
p100
aVstore
p101
as.