(dp0
Vgeometry
p1
(dp2
Vlocation_type
p3
VAPPROXIMATE
p4
sVbounds
p5
(dp6
Vnortheast
p7
(dp8
Vlat
p9
F44.5561987
sVlng
p10
F11.4337169
ssVsouthwest
p11
(dp12
Vlat
p13
F44.4420377
sVlng
p14
F11.2296541
sssVviewport
p15
(dp16
Vnortheast
p17
(dp18
Vlat
p19
F44.5561987
sVlng
p20
F11.4337169
ssVsouthwest
p21
(dp22
Vlat
p23
F44.4420377
sVlng
p24
F11.2296541
sssVlocation
p25
(dp26
Vlat
p27
F44.494887
sVlng
p28
F11.3426162
sssVformatted_address
p29
VBologna, Metropolitan City of Bologna, Italy
p30
sVplace_id
p31
VChIJC8RR6ZjUf0cRQZSkWwF84aI
p32
sVaddress_components
p33
(lp34
(dp35
Vlong_name
p36
VBologna
p37
sVtypes
p38
(lp39
Vlocality
p40
aVpolitical
p41
asVshort_name
p42
VBologna
p43
sa(dp44
Vlong_name
p45
VBologna
p46
sVtypes
p47
(lp48
Vadministrative_area_level_3
p49
aVpolitical
p50
asVshort_name
p51
VBologna
p52
sa(dp53
Vlong_name
p54
VMetropolitan City of Bologna
p55
sVtypes
p56
(lp57
Vadministrative_area_level_2
p58
aVpolitical
p59
asVshort_name
p60
VBO
p61
sa(dp62
Vlong_name
p63
VEmilia-Romagna
p64
sVtypes
p65
(lp66
Vadministrative_area_level_1
p67
aVpolitical
p68
asVshort_name
p69
VEmilia-Romagna
p70
sa(dp71
Vlong_name
p72
VItaly
p73
sVtypes
p74
(lp75
Vcountry
p76
aVpolitical
p77
asVshort_name
p78
VIT
p79
sasVpartial_match
p80
I01
sVtypes
p81
(lp82
Vlocality
p83
aVpolitical
p84
as.