(dp0
Vgeometry
p1
(dp2
Vlocation
p3
(dp4
Vlat
p5
F62.703287
sVlng
p6
F29.04793149999999
ssVviewport
p7
(dp8
Vnortheast
p9
(dp10
Vlat
p11
F62.70463598029151
sVlng
p12
F29.04928048029149
ssVsouthwest
p13
(dp14
Vlat
p15
F62.70193801970849
sVlng
p16
F29.0465825197085
sssVlocation_type
p17
VGEOMETRIC_CENTER
p18
ssVaddress_components
p19
(lp20
(dp21
Vlong_name
p22
VKuopio
p23
sVtypes
p24
(lp25
Vlocality
p26
aVpolitical
p27
asVshort_name
p28
VKuopio
p29
sa(dp30
Vlong_name
p31
VFinland
p32
sVtypes
p33
(lp34
Vcountry
p35
aVpolitical
p36
asVshort_name
p37
VFI
p38
sa(dp39
Vlong_name
p40
V70101
p41
sVtypes
p42
(lp43
Vpostal_code
p44
asVshort_name
p45
V70101
p46
sasVplace_id
p47
VChIJ_V_HFuNkm0YRdZQy6IcimFA
p48
sVformatted_address
p49
VPl 37, 70101 Kuopio, Finland
p50
sVtypes
p51
(lp52
Vestablishment
p53
aVpoint_of_interest
p54
as.