(dp0
Vgeometry
p1
(dp2
Vlocation_type
p3
VAPPROXIMATE
p4
sVbounds
p5
(dp6
Vnortheast
p7
(dp8
Vlat
p9
F39.3722059
sVlng
p10
F-76.5294528
ssVsouthwest
p11
(dp12
Vlat
p13
F39.1972069
sVlng
p14
F-76.71151909999999
sssVviewport
p15
(dp16
Vnortheast
p17
(dp18
Vlat
p19
F39.3722059
sVlng
p20
F-76.5294528
ssVsouthwest
p21
(dp22
Vlat
p23
F39.1972069
sVlng
p24
F-76.71151909999999
sssVlocation
p25
(dp26
Vlat
p27
F39.2903848
sVlng
p28
F-76.6121893
sssVformatted_address
p29
VBaltimore, MD, USA
p30
sVplace_id
p31
VChIJt4P01q4DyIkRWOcjQqiWSAQ
p32
sVaddress_components
p33
(lp34
(dp35
Vlong_name
p36
VBaltimore
p37
sVtypes
p38
(lp39
Vlocality
p40
aVpolitical
p41
asVshort_name
p42
VBaltimore
p43
sa(dp44
Vlong_name
p45
VMaryland
p46
sVtypes
p47
(lp48
Vadministrative_area_level_1
p49
aVpolitical
p50
asVshort_name
p51
VMD
p52
sa(dp53
Vlong_name
p54
VUnited States
p55
sVtypes
p56
(lp57
Vcountry
p58
aVpolitical
p59
asVshort_name
p60
VUS
p61
sasVpartial_match
p62
I01
sVtypes
p63
(lp64
Vlocality
p65
aVpolitical
p66
as.