(dp0
Vgeometry
p1
(dp2
Vlocation
p3
(dp4
Vlat
p5
F34.0260188
sVlng
p6
F-118.4762745
ssVviewport
p7
(dp8
Vnortheast
p9
(dp10
Vlat
p11
F34.02736778029149
sVlng
p12
F-118.4749255197085
ssVsouthwest
p13
(dp14
Vlat
p15
F34.0246698197085
sVlng
p16
F-118.4776234802915
sssVlocation_type
p17
VROOFTOP
p18
ssVaddress_components
p19
(lp20
(dp21
Vlong_name
p22
V# 100
p23
sVtypes
p24
(lp25
Vsubpremise
p26
asVshort_name
p27
V# 100
p28
sa(dp29
Vlong_name
p30
V2110
p31
sVtypes
p32
(lp33
Vstreet_number
p34
asVshort_name
p35
V2110
p36
sa(dp37
Vlong_name
p38
VColorado Avenue
p39
sVtypes
p40
(lp41
Vroute
p42
asVshort_name
p43
VColorado Ave
p44
sa(dp45
Vlong_name
p46
VSanta Monica
p47
sVtypes
p48
(lp49
Vlocality
p50
aVpolitical
p51
asVshort_name
p52
VSanta Monica
p53
sa(dp54
Vlong_name
p55
VLos Angeles County
p56
sVtypes
p57
(lp58
Vadministrative_area_level_2
p59
aVpolitical
p60
asVshort_name
p61
VLos Angeles County
p62
sa(dp63
Vlong_name
p64
VCalifornia
p65
sVtypes
p66
(lp67
Vadministrative_area_level_1
p68
aVpolitical
p69
asVshort_name
p70
VCA
p71
sa(dp72
Vlong_name
p73
VUnited States
p74
sVtypes
p75
(lp76
Vcountry
p77
aVpolitical
p78
asVshort_name
p79
VUS
p80
sa(dp81
Vlong_name
p82
V90404
p83
sVtypes
p84
(lp85
Vpostal_code
p86
asVshort_name
p87
V90404
p88
sa(dp89
Vlong_name
p90
V3751
p91
sVtypes
p92
(lp93
Vpostal_code_suffix
p94
asVshort_name
p95
V3751
p96
sasVplace_id
p97
VChIJAz4yaze7woARCpYgTtWfNKY
p98
sVformatted_address
p99
V2110 Colorado Ave # 100, Santa Monica, CA 90404, USA
p100
sVtypes
p101
(lp102
Vestablishment
p103
aVpoint_of_interest
p104
as.