(dp0
Vgeometry
p1
(dp2
Vlocation_type
p3
VAPPROXIMATE
p4
sVbounds
p5
(dp6
Vnortheast
p7
(dp8
Vlat
p9
F50.9495539
sVlng
p10
F6.85516
ssVsouthwest
p11
(dp12
Vlat
p13
F50.8760492
sVlng
p14
F6.719887399999999
sssVviewport
p15
(dp16
Vnortheast
p17
(dp18
Vlat
p19
F50.9495539
sVlng
p20
F6.85516
ssVsouthwest
p21
(dp22
Vlat
p23
F50.8760492
sVlng
p24
F6.719887399999999
sssVlocation
p25
(dp26
Vlat
p27
F50.9122488
sVlng
p28
F6.815995699999999
sssVformatted_address
p29
V50226 Frechen, Germany
p30
sVplace_id
p31
VChIJoYAn65M7v0cRO2kFvv6_EpY
p32
sVaddress_components
p33
(lp34
(dp35
Vlong_name
p36
VFrechen
p37
sVtypes
p38
(lp39
Vlocality
p40
aVpolitical
p41
asVshort_name
p42
VFrechen
p43
sa(dp44
Vlong_name
p45
VRhein-Erft-Kreis
p46
sVtypes
p47
(lp48
Vadministrative_area_level_3
p49
aVpolitical
p50
asVshort_name
p51
VRhein-Erft-Kreis
p52
sa(dp53
Vlong_name
p54
VCologne
p55
sVtypes
p56
(lp57
Vadministrative_area_level_2
p58
aVpolitical
p59
asVshort_name
p60
VK
p61
sa(dp62
Vlong_name
p63
VNorth Rhine-Westphalia
p64
sVtypes
p65
(lp66
Vadministrative_area_level_1
p67
aVpolitical
p68
asVshort_name
p69
VNRW
p70
sa(dp71
Vlong_name
p72
VGermany
p73
sVtypes
p74
(lp75
Vcountry
p76
aVpolitical
p77
asVshort_name
p78
VDE
p79
sa(dp80
Vlong_name
p81
V50226
p82
sVtypes
p83
(lp84
Vpostal_code
p85
asVshort_name
p86
V50226
p87
sasVpartial_match
p88
I01
sVtypes
p89
(lp90
Vlocality
p91
aVpolitical
p92
as.