(dp0
Vgeometry
p1
(dp2
Vlocation_type
p3
VAPPROXIMATE
p4
sVbounds
p5
(dp6
Vnortheast
p7
(dp8
Vlat
p9
F35.7298963
sVlng
p10
F139.7451654
ssVsouthwest
p11
(dp12
Vlat
p13
F35.6731541
sVlng
p14
F139.6732488
sssVviewport
p15
(dp16
Vnortheast
p17
(dp18
Vlat
p19
F35.7298963
sVlng
p20
F139.7451654
ssVsouthwest
p21
(dp22
Vlat
p23
F35.6731541
sVlng
p24
F139.6732488
sssVlocation
p25
(dp26
Vlat
p27
F35.6938401
sVlng
p28
F139.7035494
sssVformatted_address
p29
VShinjuku, Tokyo, Japan
p30
sVplace_id
p31
VChIJS_23WSCNGGAR0u8y4o_GYew
p32
sVaddress_components
p33
(lp34
(dp35
Vlong_name
p36
VShinjuku
p37
sVtypes
p38
(lp39
Vlocality
p40
aVpolitical
p41
asVshort_name
p42
VShinjuku
p43
sa(dp44
Vlong_name
p45
VTokyo
p46
sVtypes
p47
(lp48
Vadministrative_area_level_1
p49
aVpolitical
p50
asVshort_name
p51
VTokyo
p52
sa(dp53
Vlong_name
p54
VJapan
p55
sVtypes
p56
(lp57
Vcountry
p58
aVpolitical
p59
asVshort_name
p60
VJP
p61
sasVpartial_match
p62
I01
sVtypes
p63
(lp64
Vlocality
p65
aVpolitical
p66
as.