(dp0
Vgeometry
p1
(dp2
Vlocation_type
p3
VAPPROXIMATE
p4
sVbounds
p5
(dp6
Vnortheast
p7
(dp8
Vlat
p9
F50.661248
sVlng
p10
F3.1263549
ssVsouthwest
p11
(dp12
Vlat
p13
F50.600887
sVlng
p14
F2.967966
sssVviewport
p15
(dp16
Vnortheast
p17
(dp18
Vlat
p19
F50.661248
sVlng
p20
F3.1263549
ssVsouthwest
p21
(dp22
Vlat
p23
F50.600887
sVlng
p24
F2.967966
sssVlocation
p25
(dp26
Vlat
p27
F50.62925
sVlng
p28
F3.057256
sssVformatted_address
p29
VLille, France
p30
sVplace_id
p31
VChIJEW4ls3nVwkcRYGNkgT7xCgQ
p32
sVaddress_components
p33
(lp34
(dp35
Vlong_name
p36
VLille
p37
sVtypes
p38
(lp39
Vlocality
p40
aVpolitical
p41
asVshort_name
p42
VLille
p43
sa(dp44
Vlong_name
p45
VNord
p46
sVtypes
p47
(lp48
Vadministrative_area_level_2
p49
aVpolitical
p50
asVshort_name
p51
VNord
p52
sa(dp53
Vlong_name
p54
VHauts-de-France
p55
sVtypes
p56
(lp57
Vadministrative_area_level_1
p58
aVpolitical
p59
asVshort_name
p60
VHauts-de-France
p61
sa(dp62
Vlong_name
p63
VFrance
p64
sVtypes
p65
(lp66
Vcountry
p67
aVpolitical
p68
asVshort_name
p69
VFR
p70
sasVpartial_match
p71
I01
sVtypes
p72
(lp73
Vlocality
p74
aVpolitical
p75
as.