(dp0
Vgeometry
p1
(dp2
Vlocation
p3
(dp4
Vlat
p5
F51.05582769999999
sVlng
p6
F3.72867
ssVviewport
p7
(dp8
Vnortheast
p9
(dp10
Vlat
p11
F51.0571766802915
sVlng
p12
F3.730018980291502
ssVsouthwest
p13
(dp14
Vlat
p15
F51.0544787197085
sVlng
p16
F3.727321019708497
sssVlocation_type
p17
VROOFTOP
p18
ssVaddress_components
p19
(lp20
(dp21
Vlong_name
p22
V9
p23
sVtypes
p24
(lp25
Vstreet_number
p26
asVshort_name
p27
g23
sa(dp28
Vlong_name
p29
VVlasmarkt
p30
sVtypes
p31
(lp32
Vroute
p33
asVshort_name
p34
VVlasmarkt
p35
sa(dp36
Vlong_name
p37
VGent
p38
sVtypes
p39
(lp40
Vlocality
p41
aVpolitical
p42
asVshort_name
p43
VGent
p44
sa(dp45
Vlong_name
p46
VOost-Vlaanderen
p47
sVtypes
p48
(lp49
Vadministrative_area_level_2
p50
aVpolitical
p51
asVshort_name
p52
VOV
p53
sa(dp54
Vlong_name
p55
VVlaanderen
p56
sVtypes
p57
(lp58
Vadministrative_area_level_1
p59
aVpolitical
p60
asVshort_name
p61
VVlaanderen
p62
sa(dp63
Vlong_name
p64
VBelgium
p65
sVtypes
p66
(lp67
Vcountry
p68
aVpolitical
p69
asVshort_name
p70
VBE
p71
sa(dp72
Vlong_name
p73
V9000
p74
sVtypes
p75
(lp76
Vpostal_code
p77
asVshort_name
p78
V9000
p79
sasVplace_id
p80
VChIJ66MjbEhxw0cRjoP-A9WCjr8
p81
sVformatted_address
p82
VVlasmarkt 9, 9000 Gent, Belgium
p83
sVtypes
p84
(lp85
Vbar
p86
aVestablishment
p87
aVpoint_of_interest
p88
as.