(dp0
Vgeometry
p1
(dp2
Vlocation
p3
(dp4
Vlat
p5
F42.333173
sVlng
p6
F-83.051461
ssVviewport
p7
(dp8
Vnortheast
p9
(dp10
Vlat
p11
F42.3345219802915
sVlng
p12
F-83.0501120197085
ssVsouthwest
p13
(dp14
Vlat
p15
F42.3318240197085
sVlng
p16
F-83.0528099802915
sssVlocation_type
p17
VROOFTOP
p18
ssVformatted_address
p19
V1249 Washington Blvd, Detroit, MI 48226, USA
p20
sVplace_id
p21
VChIJdalD2DAtO4gRYzlNhuQMxvw
p22
sVaddress_components
p23
(lp24
(dp25
Vlong_name
p26
V1249
p27
sVtypes
p28
(lp29
Vstreet_number
p30
asVshort_name
p31
V1249
p32
sa(dp33
Vlong_name
p34
VWashington Boulevard
p35
sVtypes
p36
(lp37
Vroute
p38
asVshort_name
p39
VWashington Blvd
p40
sa(dp41
Vlong_name
p42
VDowntown
p43
sVtypes
p44
(lp45
Vneighborhood
p46
aVpolitical
p47
asVshort_name
p48
VDowntown
p49
sa(dp50
Vlong_name
p51
VDetroit
p52
sVtypes
p53
(lp54
Vlocality
p55
aVpolitical
p56
asVshort_name
p57
VDetroit
p58
sa(dp59
Vlong_name
p60
VWayne County
p61
sVtypes
p62
(lp63
Vadministrative_area_level_2
p64
aVpolitical
p65
asVshort_name
p66
VWayne County
p67
sa(dp68
Vlong_name
p69
VMichigan
p70
sVtypes
p71
(lp72
Vadministrative_area_level_1
p73
aVpolitical
p74
asVshort_name
p75
VMI
p76
sa(dp77
Vlong_name
p78
VUnited States
p79
sVtypes
p80
(lp81
Vcountry
p82
aVpolitical
p83
asVshort_name
p84
VUS
p85
sa(dp86
Vlong_name
p87
V48226
p88
sVtypes
p89
(lp90
Vpostal_code
p91
asVshort_name
p92
V48226
p93
sa(dp94
Vlong_name
p95
V1834
p96
sVtypes
p97
(lp98
Vpostal_code_suffix
p99
asVshort_name
p100
V1834
p101
sasVpartial_match
p102
I01
sVtypes
p103
(lp104
Vestablishment
p105
aVpoint_of_interest
p106
as.