(dp0
Vgeometry
p1
(dp2
Vlocation_type
p3
VAPPROXIMATE
p4
sVbounds
p5
(dp6
Vnortheast
p7
(dp8
Vlat
p9
F35.2604546
sVlng
p10
F137.0609248
ssVsouthwest
p11
(dp12
Vlat
p13
F35.0338724
sVlng
p14
F136.7918103
sssVviewport
p15
(dp16
Vnortheast
p17
(dp18
Vlat
p19
F35.1979
sVlng
p20
F136.9607
ssVsouthwest
p21
(dp22
Vlat
p23
F35.1382
sVlng
p24
F136.8625
sssVlocation
p25
(dp26
Vlat
p27
F35.1814464
sVlng
p28
F136.906398
sssVformatted_address
p29
VNagoya, Aichi Prefecture, Japan
p30
sVplace_id
p31
VChIJZSN7EJ5wA2ARUrPO6NQilio
p32
sVaddress_components
p33
(lp34
(dp35
Vlong_name
p36
VNagoya
p37
sVtypes
p38
(lp39
Vlocality
p40
aVpolitical
p41
asVshort_name
p42
VNagoya
p43
sa(dp44
Vlong_name
p45
VAichi Prefecture
p46
sVtypes
p47
(lp48
Vadministrative_area_level_1
p49
aVpolitical
p50
asVshort_name
p51
VAichi Prefecture
p52
sa(dp53
Vlong_name
p54
VJapan
p55
sVtypes
p56
(lp57
Vcountry
p58
aVpolitical
p59
asVshort_name
p60
VJP
p61
sasVpartial_match
p62
I01
sVtypes
p63
(lp64
Vlocality
p65
aVpolitical
p66
as.