(dp0
Vgeometry
p1
(dp2
Vlocation
p3
(dp4
Vlat
p5
F51.51010950000001
sVlng
p6
F-0.091093
ssVviewport
p7
(dp8
Vnortheast
p9
(dp10
Vlat
p11
F51.51145848029151
sVlng
p12
F-0.08974401970849796
ssVsouthwest
p13
(dp14
Vlat
p15
F51.50876051970851
sVlng
p16
F-0.09244198029150202
sssVlocation_type
p17
VROOFTOP
p18
ssVaddress_components
p19
(lp20
(dp21
Vlong_name
p22
V1
p23
sVtypes
p24
(lp25
Vstreet_number
p26
asVshort_name
p27
g23
sa(dp28
Vlong_name
p29
VCousin Lane
p30
sVtypes
p31
(lp32
Vroute
p33
asVshort_name
p34
VCousin Ln
p35
sa(dp36
Vlong_name
p37
VLondon
p38
sVtypes
p39
(lp40
Vpostal_town
p41
asVshort_name
p42
VLondon
p43
sa(dp44
Vlong_name
p45
VGreater London
p46
sVtypes
p47
(lp48
Vadministrative_area_level_2
p49
aVpolitical
p50
asVshort_name
p51
VGreater London
p52
sa(dp53
Vlong_name
p54
VEngland
p55
sVtypes
p56
(lp57
Vadministrative_area_level_1
p58
aVpolitical
p59
asVshort_name
p60
VEngland
p61
sa(dp62
Vlong_name
p63
VUnited Kingdom
p64
sVtypes
p65
(lp66
Vcountry
p67
aVpolitical
p68
asVshort_name
p69
VGB
p70
sa(dp71
Vlong_name
p72
VEC4R 3TE
p73
sVtypes
p74
(lp75
Vpostal_code
p76
asVshort_name
p77
VEC4R 3TE
p78
sasVplace_id
p79
VChIJNQhs01UDdkgRiEkNJxzpG3I
p80
sVformatted_address
p81
V1 Cousin Ln, London EC4R 3TE, UK
p82
sVtypes
p83
(lp84
Vestablishment
p85
aVpoint_of_interest
p86
as.