(dp0
Vgeometry
p1
(dp2
Vlocation_type
p3
VAPPROXIMATE
p4
sVbounds
p5
(dp6
Vnortheast
p7
(dp8
Vlat
p9
F42.59695199999999
sVlng
p10
F-83.2253889
ssVsouthwest
p11
(dp12
Vlat
p13
F42.55919
sVlng
p14
F-83.2658689
sssVviewport
p15
(dp16
Vnortheast
p17
(dp18
Vlat
p19
F42.59695199999999
sVlng
p20
F-83.2253889
ssVsouthwest
p21
(dp22
Vlat
p23
F42.55919
sVlng
p24
F-83.2658689
sssVlocation
p25
(dp26
Vlat
p27
F42.583645
sVlng
p28
F-83.24548829999999
sssVformatted_address
p29
VBloomfield Hills, MI 48304, USA
p30
sVplace_id
p31
VChIJpb5Fg76wJIgRAGGYe1ChJuA
p32
sVaddress_components
p33
(lp34
(dp35
Vlong_name
p36
VBloomfield Hills
p37
sVtypes
p38
(lp39
Vlocality
p40
aVpolitical
p41
asVshort_name
p42
VBloomfield Hills
p43
sa(dp44
Vlong_name
p45
VOakland County
p46
sVtypes
p47
(lp48
Vadministrative_area_level_2
p49
aVpolitical
p50
asVshort_name
p51
VOakland County
p52
sa(dp53
Vlong_name
p54
VMichigan
p55
sVtypes
p56
(lp57
Vadministrative_area_level_1
p58
aVpolitical
p59
asVshort_name
p60
VMI
p61
sa(dp62
Vlong_name
p63
VUnited States
p64
sVtypes
p65
(lp66
Vcountry
p67
aVpolitical
p68
asVshort_name
p69
VUS
p70
sa(dp71
Vlong_name
p72
V48304
p73
sVtypes
p74
(lp75
Vpostal_code
p76
asVshort_name
p77
V48304
p78
sasVpartial_match
p79
I01
sVtypes
p80
(lp81
Vlocality
p82
aVpolitical
p83
as.