(dp0
Vgeometry
p1
(dp2
Vlocation
p3
(dp4
Vlat
p5
F40.4103304
sVlng
p6
F-3.7061619
ssVviewport
p7
(dp8
Vnortheast
p9
(dp10
Vlat
p11
F40.4116793802915
sVlng
p12
F-3.704812919708498
ssVsouthwest
p13
(dp14
Vlat
p15
F40.4089814197085
sVlng
p16
F-3.707510880291502
sssVlocation_type
p17
VROOFTOP
p18
ssVaddress_components
p19
(lp20
(dp21
Vlong_name
p22
V22
p23
sVtypes
p24
(lp25
Vstreet_number
p26
asVshort_name
p27
V22
p28
sa(dp29
Vlong_name
p30
VCalle Dos Hermanas
p31
sVtypes
p32
(lp33
Vroute
p34
asVshort_name
p35
VCalle Dos Hermanas
p36
sa(dp37
Vlong_name
p38
VMadrid
p39
sVtypes
p40
(lp41
Vlocality
p42
aVpolitical
p43
asVshort_name
p44
VMadrid
p45
sa(dp46
Vlong_name
p47
VMadrid
p48
sVtypes
p49
(lp50
Vadministrative_area_level_2
p51
aVpolitical
p52
asVshort_name
p53
VM
p54
sa(dp55
Vlong_name
p56
VComunidad de Madrid
p57
sVtypes
p58
(lp59
Vadministrative_area_level_1
p60
aVpolitical
p61
asVshort_name
p62
VComunidad de Madrid
p63
sa(dp64
Vlong_name
p65
VSpain
p66
sVtypes
p67
(lp68
Vcountry
p69
aVpolitical
p70
asVshort_name
p71
VES
p72
sa(dp73
Vlong_name
p74
V28012
p75
sVtypes
p76
(lp77
Vpostal_code
p78
asVshort_name
p79
V28012
p80
sasVplace_id
p81
VChIJ14rkstUnQg0RdHTm3H37oew
p82
sVformatted_address
p83
VCalle Dos Hermanas, 22, 28012 Madrid, Spain
p84
sVtypes
p85
(lp86
Velectronics_store
p87
aVestablishment
p88
aVhome_goods_store
p89
aVpoint_of_interest
p90
aVstore
p91
as.