(dp0
Vgeometry
p1
(dp2
Vlocation
p3
(dp4
Vlat
p5
F50.767283
sVlng
p6
F1.608757
ssVviewport
p7
(dp8
Vnortheast
p9
(dp10
Vlat
p11
F50.7686319802915
sVlng
p12
F1.610105980291502
ssVsouthwest
p13
(dp14
Vlat
p15
F50.7659340197085
sVlng
p16
F1.607408019708498
sssVlocation_type
p17
VGEOMETRIC_CENTER
p18
ssVaddress_components
p19
(lp20
(dp21
Vlong_name
p22
VWimereux
p23
sVtypes
p24
(lp25
Vlocality
p26
aVpolitical
p27
asVshort_name
p28
VWimereux
p29
sa(dp30
Vlong_name
p31
VFrance
p32
sVtypes
p33
(lp34
Vcountry
p35
aVpolitical
p36
asVshort_name
p37
VFR
p38
sa(dp39
Vlong_name
p40
V62930
p41
sVtypes
p42
(lp43
Vpostal_code
p44
asVshort_name
p45
V62930
p46
sasVplace_id
p47
VChIJ40VU_5Mu3EcRLCqGJTDQ0-g
p48
sVformatted_address
p49
Vrue Napoleon, 62930 Wimereux, France
p50
sVtypes
p51
(lp52
Velectronics_store
p53
aVestablishment
p54
aVhome_goods_store
p55
aVpoint_of_interest
p56
aVstore
p57
as.