(dp0
Vgeometry
p1
(dp2
Vlocation
p3
(dp4
Vlat
p5
F41.8189247
sVlng
p6
F-71.4323936
ssVviewport
p7
(dp8
Vnortheast
p9
(dp10
Vlat
p11
F41.8202736802915
sVlng
p12
F-71.43104461970849
ssVsouthwest
p13
(dp14
Vlat
p15
F41.8175757197085
sVlng
p16
F-71.4337425802915
sssVlocation_type
p17
VROOFTOP
p18
ssVaddress_components
p19
(lp20
(dp21
Vlong_name
p22
V436
p23
sVtypes
p24
(lp25
Vstreet_number
p26
asVshort_name
p27
V436
p28
sa(dp29
Vlong_name
p30
VBroadway
p31
sVtypes
p32
(lp33
Vroute
p34
asVshort_name
p35
VBroadway
p36
sa(dp37
Vlong_name
p38
VFederal Hill
p39
sVtypes
p40
(lp41
Vneighborhood
p42
aVpolitical
p43
asVshort_name
p44
VFederal Hill
p45
sa(dp46
Vlong_name
p47
VProvidence
p48
sVtypes
p49
(lp50
Vlocality
p51
aVpolitical
p52
asVshort_name
p53
VProvidence
p54
sa(dp55
Vlong_name
p56
VProvidence County
p57
sVtypes
p58
(lp59
Vadministrative_area_level_2
p60
aVpolitical
p61
asVshort_name
p62
VProvidence County
p63
sa(dp64
Vlong_name
p65
VRhode Island
p66
sVtypes
p67
(lp68
Vadministrative_area_level_1
p69
aVpolitical
p70
asVshort_name
p71
VRI
p72
sa(dp73
Vlong_name
p74
VUnited States
p75
sVtypes
p76
(lp77
Vcountry
p78
aVpolitical
p79
asVshort_name
p80
VUS
p81
sa(dp82
Vlong_name
p83
V02909
p84
sVtypes
p85
(lp86
Vpostal_code
p87
asVshort_name
p88
V02909
p89
sa(dp90
Vlong_name
p91
V1622
p92
sVtypes
p93
(lp94
Vpostal_code_suffix
p95
asVshort_name
p96
V1622
p97
sasVplace_id
p98
VChIJO6NYZJ5F5IkRj2wOypfnU6s
p99
sVformatted_address
p100
V436 Broadway, Providence, RI 02909, USA
p101
sVtypes
p102
(lp103
Velectronics_store
p104
aVestablishment
p105
aVhome_goods_store
p106
aVpoint_of_interest
p107
aVstore
p108
as.