(dp0
Vgeometry
p1
(dp2
Vlocation
p3
(dp4
Vlat
p5
F51.5014478
sVlng
p6
F-0.1908953
ssVviewport
p7
(dp8
Vnortheast
p9
(dp10
Vlat
p11
F51.5027967802915
sVlng
p12
F-0.189546319708498
ssVsouthwest
p13
(dp14
Vlat
p15
F51.50009881970851
sVlng
p16
F-0.192244280291502
sssVlocation_type
p17
VROOFTOP
p18
ssVaddress_components
p19
(lp20
(dp21
Vlong_name
p22
V2
p23
sVtypes
p24
(lp25
Vstreet_number
p26
asVshort_name
p27
g23
sa(dp28
Vlong_name
p29
VDerry Street
p30
sVtypes
p31
(lp32
Vroute
p33
asVshort_name
p34
VDerry St
p35
sa(dp36
Vlong_name
p37
VKensington
p38
sVtypes
p39
(lp40
Vneighborhood
p41
aVpolitical
p42
asVshort_name
p43
VKensington
p44
sa(dp45
Vlong_name
p46
VLondon
p47
sVtypes
p48
(lp49
Vpostal_town
p50
asVshort_name
p51
VLondon
p52
sa(dp53
Vlong_name
p54
VGreater London
p55
sVtypes
p56
(lp57
Vadministrative_area_level_2
p58
aVpolitical
p59
asVshort_name
p60
VGreater London
p61
sa(dp62
Vlong_name
p63
VEngland
p64
sVtypes
p65
(lp66
Vadministrative_area_level_1
p67
aVpolitical
p68
asVshort_name
p69
VEngland
p70
sa(dp71
Vlong_name
p72
VUnited Kingdom
p73
sVtypes
p74
(lp75
Vcountry
p76
aVpolitical
p77
asVshort_name
p78
VGB
p79
sa(dp80
Vlong_name
p81
VW8 5HY
p82
sVtypes
p83
(lp84
Vpostal_code
p85
asVshort_name
p86
VW8 5HY
p87
sasVplace_id
p88
VChIJWeT1VfYPdkgRDWv2Qa992bQ
p89
sVformatted_address
p90
V2 Derry St, Kensington, London W8 5HY, UK
p91
sVtypes
p92
(lp93
Vestablishment
p94
aVpoint_of_interest
p95
as.