(dp0
Vgeometry
p1
(dp2
Vlocation
p3
(dp4
Vlat
p5
F36.0346901
sVlng
p6
F-86.80736879999999
ssVviewport
p7
(dp8
Vnortheast
p9
(dp10
Vlat
p11
F36.03603908029149
sVlng
p12
F-86.80601981970848
ssVsouthwest
p13
(dp14
Vlat
p15
F36.0333411197085
sVlng
p16
F-86.8087177802915
sssVlocation_type
p17
VROOFTOP
p18
ssVaddress_components
p19
(lp20
(dp21
Vlong_name
p22
V200
p23
sVtypes
p24
(lp25
Vsubpremise
p26
asVshort_name
p27
V200
p28
sa(dp29
Vlong_name
p30
V5217
p31
sVtypes
p32
(lp33
Vstreet_number
p34
asVshort_name
p35
V5217
p36
sa(dp37
Vlong_name
p38
VMaryland Way
p39
sVtypes
p40
(lp41
Vroute
p42
asVshort_name
p43
VMaryland Way
p44
sa(dp45
Vlong_name
p46
VBrentwood
p47
sVtypes
p48
(lp49
Vlocality
p50
aVpolitical
p51
asVshort_name
p52
VBrentwood
p53
sa(dp54
Vlong_name
p55
VWilliamson County
p56
sVtypes
p57
(lp58
Vadministrative_area_level_2
p59
aVpolitical
p60
asVshort_name
p61
VWilliamson County
p62
sa(dp63
Vlong_name
p64
VTennessee
p65
sVtypes
p66
(lp67
Vadministrative_area_level_1
p68
aVpolitical
p69
asVshort_name
p70
VTN
p71
sa(dp72
Vlong_name
p73
VUnited States
p74
sVtypes
p75
(lp76
Vcountry
p77
aVpolitical
p78
asVshort_name
p79
VUS
p80
sa(dp81
Vlong_name
p82
V37027
p83
sVtypes
p84
(lp85
Vpostal_code
p86
asVshort_name
p87
V37027
p88
sasVplace_id
p89
VChIJPStOVVhmZIgR7M0d5aVLjek
p90
sVformatted_address
p91
V5217 Maryland Way #200, Brentwood, TN 37027, USA
p92
sVtypes
p93
(lp94
Vestablishment
p95
aVpoint_of_interest
p96
as.