(dp0
Vgeometry
p1
(dp2
Vlocation
p3
(dp4
Vlat
p5
F38.888684
sVlng
p6
F-77.004719
ssVviewport
p7
(dp8
Vnortheast
p9
(dp10
Vlat
p11
F38.89003298029149
sVlng
p12
F-77.00337001970848
ssVsouthwest
p13
(dp14
Vlat
p15
F38.8873350197085
sVlng
p16
F-77.00606798029149
sssVlocation_type
p17
VROOFTOP
p18
ssVaddress_components
p19
(lp20
(dp21
Vlong_name
p22
V101
p23
sVtypes
p24
(lp25
Vstreet_number
p26
asVshort_name
p27
V101
p28
sa(dp29
Vlong_name
p30
VIndependence Avenue Southeast
p31
sVtypes
p32
(lp33
Vroute
p34
asVshort_name
p35
VIndependence Ave SE
p36
sa(dp37
Vlong_name
p38
VSoutheast Washington
p39
sVtypes
p40
(lp41
Vneighborhood
p42
aVpolitical
p43
asVshort_name
p44
VSoutheast Washington
p45
sa(dp46
Vlong_name
p47
VWashington
p48
sVtypes
p49
(lp50
Vlocality
p51
aVpolitical
p52
asVshort_name
p53
VWashington
p54
sa(dp55
Vlong_name
p56
VDistrict of Columbia
p57
sVtypes
p58
(lp59
Vadministrative_area_level_1
p60
aVpolitical
p61
asVshort_name
p62
VDC
p63
sa(dp64
Vlong_name
p65
VUnited States
p66
sVtypes
p67
(lp68
Vcountry
p69
aVpolitical
p70
asVshort_name
p71
VUS
p72
sa(dp73
Vlong_name
p74
V20540
p75
sVtypes
p76
(lp77
Vpostal_code
p78
asVshort_name
p79
V20540
p80
sasVplace_id
p81
VChIJTTr4jvbuDzkR7D7e9Jayy0Y
p82
sVformatted_address
p83
V101 Independence Ave SE, Washington, DC 20540, USA
p84
sVtypes
p85
(lp86
Vestablishment
p87
aVlibrary
p88
aVpoint_of_interest
p89
as.