(dp0
Vgeometry
p1
(dp2
Vlocation
p3
(dp4
Vlat
p5
F42.3229711
sVlng
p6
F-83.0079275
ssVviewport
p7
(dp8
Vnortheast
p9
(dp10
Vlat
p11
F42.3243200802915
sVlng
p12
F-83.0065785197085
ssVsouthwest
p13
(dp14
Vlat
p15
F42.3216221197085
sVlng
p16
F-83.0092764802915
sssVlocation_type
p17
VROOFTOP
p18
ssVaddress_components
p19
(lp20
(dp21
Vlong_name
p22
V731
p23
sVtypes
p24
(lp25
Vstreet_number
p26
asVshort_name
p27
V731
p28
sa(dp29
Vlong_name
p30
VWalker Road
p31
sVtypes
p32
(lp33
Vroute
p34
asVshort_name
p35
VWalker Rd
p36
sa(dp37
Vlong_name
p38
VWalkerville
p39
sVtypes
p40
(lp41
Vneighborhood
p42
aVpolitical
p43
asVshort_name
p44
VWalkerville
p45
sa(dp46
Vlong_name
p47
VWindsor
p48
sVtypes
p49
(lp50
Vlocality
p51
aVpolitical
p52
asVshort_name
p53
VWindsor
p54
sa(dp55
Vlong_name
p56
VEssex County
p57
sVtypes
p58
(lp59
Vadministrative_area_level_2
p60
aVpolitical
p61
asVshort_name
p62
VEssex County
p63
sa(dp64
Vlong_name
p65
VOntario
p66
sVtypes
p67
(lp68
Vadministrative_area_level_1
p69
aVpolitical
p70
asVshort_name
p71
VON
p72
sa(dp73
Vlong_name
p74
VCanada
p75
sVtypes
p76
(lp77
Vcountry
p78
aVpolitical
p79
asVshort_name
p80
VCA
p81
sa(dp82
Vlong_name
p83
VN8Y 2N2
p84
sVtypes
p85
(lp86
Vpostal_code
p87
asVshort_name
p88
VN8Y 2N2
p89
sasVplace_id
p90
VChIJM2oBbrwsO4gRUhdVDMKg4RY
p91
sVformatted_address
p92
V731 Walker Rd, Windsor, ON N8Y 2N2, Canada
p93
sVtypes
p94
(lp95
Velectronics_store
p96
aVestablishment
p97
aVhome_goods_store
p98
aVpoint_of_interest
p99
aVstore
p100
as.