(dp0
Vgeometry
p1
(dp2
Vlocation
p3
(dp4
Vlat
p5
F39.9622421
sVlng
p6
F-75.15746519999999
ssVviewport
p7
(dp8
Vnortheast
p9
(dp10
Vlat
p11
F39.96359108029149
sVlng
p12
F-75.15611621970848
ssVsouthwest
p13
(dp14
Vlat
p15
F39.9608931197085
sVlng
p16
F-75.1588141802915
sssVlocation_type
p17
VROOFTOP
p18
ssVaddress_components
p19
(lp20
(dp21
Vlong_name
p22
V531
p23
sVtypes
p24
(lp25
Vstreet_number
p26
asVshort_name
p27
V531
p28
sa(dp29
Vlong_name
p30
VNorth 12th Street
p31
sVtypes
p32
(lp33
Vroute
p34
asVshort_name
p35
VN 12th St
p36
sa(dp37
Vlong_name
p38
VNorth Philadelphia
p39
sVtypes
p40
(lp41
Vneighborhood
p42
aVpolitical
p43
asVshort_name
p44
VNorth Philadelphia
p45
sa(dp46
Vlong_name
p47
VPhiladelphia
p48
sVtypes
p49
(lp50
Vlocality
p51
aVpolitical
p52
asVshort_name
p53
VPhiladelphia
p54
sa(dp55
Vlong_name
p56
VPhiladelphia County
p57
sVtypes
p58
(lp59
Vadministrative_area_level_2
p60
aVpolitical
p61
asVshort_name
p62
VPhiladelphia County
p63
sa(dp64
Vlong_name
p65
VPennsylvania
p66
sVtypes
p67
(lp68
Vadministrative_area_level_1
p69
aVpolitical
p70
asVshort_name
p71
VPA
p72
sa(dp73
Vlong_name
p74
VUnited States
p75
sVtypes
p76
(lp77
Vcountry
p78
aVpolitical
p79
asVshort_name
p80
VUS
p81
sa(dp82
Vlong_name
p83
V19123
p84
sVtypes
p85
(lp86
Vpostal_code
p87
asVshort_name
p88
V19123
p89
sa(dp90
Vlong_name
p91
V3323
p92
sVtypes
p93
(lp94
Vpostal_code_suffix
p95
asVshort_name
p96
V3323
p97
sasVplace_id
p98
VChIJ1YNaNdTHxokRcS02UHHYF1I
p99
sVformatted_address
p100
V531 N 12th St, Philadelphia, PA 19123, USA
p101
sVtypes
p102
(lp103
Vart_gallery
p104
aVelectronics_store
p105
aVestablishment
p106
aVhome_goods_store
p107
aVpoint_of_interest
p108
aVstore
p109
as.