(dp0
Vgeometry
p1
(dp2
Vlocation
p3
(dp4
Vlat
p5
F45.5284335
sVlng
p6
F-122.6576478
ssVviewport
p7
(dp8
Vnortheast
p9
(dp10
Vlat
p11
F45.5297824802915
sVlng
p12
F-122.6562988197085
ssVsouthwest
p13
(dp14
Vlat
p15
F45.5270845197085
sVlng
p16
F-122.6589967802915
sssVlocation_type
p17
VROOFTOP
p18
ssVaddress_components
p19
(lp20
(dp21
Vlong_name
p22
Vsuite 205
p23
sVtypes
p24
(lp25
Vsubpremise
p26
asVshort_name
p27
Vsuite 205
p28
sa(dp29
Vlong_name
p30
V800
p31
sVtypes
p32
(lp33
Vstreet_number
p34
asVshort_name
p35
V800
p36
sa(dp37
Vlong_name
p38
VNortheast Oregon Street
p39
sVtypes
p40
(lp41
Vroute
p42
asVshort_name
p43
VNE Oregon St
p44
sa(dp45
Vlong_name
p46
VLloyd District
p47
sVtypes
p48
(lp49
Vneighborhood
p50
aVpolitical
p51
asVshort_name
p52
VLloyd District
p53
sa(dp54
Vlong_name
p55
VPortland
p56
sVtypes
p57
(lp58
Vlocality
p59
aVpolitical
p60
asVshort_name
p61
VPortland
p62
sa(dp63
Vlong_name
p64
VMultnomah County
p65
sVtypes
p66
(lp67
Vadministrative_area_level_2
p68
aVpolitical
p69
asVshort_name
p70
VMultnomah County
p71
sa(dp72
Vlong_name
p73
VOregon
p74
sVtypes
p75
(lp76
Vadministrative_area_level_1
p77
aVpolitical
p78
asVshort_name
p79
VOR
p80
sa(dp81
Vlong_name
p82
VUnited States
p83
sVtypes
p84
(lp85
Vcountry
p86
aVpolitical
p87
asVshort_name
p88
VUS
p89
sa(dp90
Vlong_name
p91
V97232
p92
sVtypes
p93
(lp94
Vpostal_code
p95
asVshort_name
p96
V97232
p97
sasVplace_id
p98
VChIJq6qqqreglVQRZ2TY1_tGAYM
p99
sVformatted_address
p100
V800 NE Oregon St suite 205, Portland, OR 97232, USA
p101
sVtypes
p102
(lp103
Vestablishment
p104
aVpoint_of_interest
p105
as.