(dp0
Vgeometry
p1
(dp2
Vlocation
p3
(dp4
Vlat
p5
F40.7771485
sVlng
p6
F-73.9786515
ssVviewport
p7
(dp8
Vnortheast
p9
(dp10
Vlat
p11
F40.7784974802915
sVlng
p12
F-73.9773025197085
ssVsouthwest
p13
(dp14
Vlat
p15
F40.7757995197085
sVlng
p16
F-73.98000048029151
sssVlocation_type
p17
VROOFTOP
p18
ssVaddress_components
p19
(lp20
(dp21
Vlong_name
p22
V58
p23
sVtypes
p24
(lp25
Vstreet_number
p26
asVshort_name
p27
V58
p28
sa(dp29
Vlong_name
p30
VWest 72nd Street
p31
sVtypes
p32
(lp33
Vroute
p34
asVshort_name
p35
VW 72nd St
p36
sa(dp37
Vlong_name
p38
VManhattan
p39
sVtypes
p40
(lp41
Vpolitical
p42
aVsublocality
p43
aVsublocality_level_1
p44
asVshort_name
p45
VManhattan
p46
sa(dp47
Vlong_name
p48
VNew York
p49
sVtypes
p50
(lp51
Vlocality
p52
aVpolitical
p53
asVshort_name
p54
VNew York
p55
sa(dp56
Vlong_name
p57
VNew York County
p58
sVtypes
p59
(lp60
Vadministrative_area_level_2
p61
aVpolitical
p62
asVshort_name
p63
VNew York County
p64
sa(dp65
Vlong_name
p66
VNew York
p67
sVtypes
p68
(lp69
Vadministrative_area_level_1
p70
aVpolitical
p71
asVshort_name
p72
VNY
p73
sa(dp74
Vlong_name
p75
VUnited States
p76
sVtypes
p77
(lp78
Vcountry
p79
aVpolitical
p80
asVshort_name
p81
VUS
p82
sa(dp83
Vlong_name
p84
V10023
p85
sVtypes
p86
(lp87
Vpostal_code
p88
asVshort_name
p89
V10023
p90
sa(dp91
Vlong_name
p92
V4154
p93
sVtypes
p94
(lp95
Vpostal_code_suffix
p96
asVshort_name
p97
V4154
p98
sasVplace_id
p99
VChIJG-4vootYwokRz0fLzkCuUAQ
p100
sVformatted_address
p101
V58 W 72nd St, New York, NY 10023, USA
p102
sVtypes
p103
(lp104
Velectronics_store
p105
aVestablishment
p106
aVhome_goods_store
p107
aVpoint_of_interest
p108
aVstore
p109
as.