(dp0
Vgeometry
p1
(dp2
Vlocation_type
p3
VAPPROXIMATE
p4
sVbounds
p5
(dp6
Vnortheast
p7
(dp8
Vlat
p9
F55.7270937
sVlng
p10
F12.7342654
ssVsouthwest
p11
(dp12
Vlat
p13
F55.615441
sVlng
p14
F12.4533824
sssVviewport
p15
(dp16
Vnortheast
p17
(dp18
Vlat
p19
F55.7270937
sVlng
p20
F12.7342654
ssVsouthwest
p21
(dp22
Vlat
p23
F55.615441
sVlng
p24
F12.4533824
sssVlocation
p25
(dp26
Vlat
p27
F55.6760968
sVlng
p28
F12.5683372
sssVformatted_address
p29
VCopenhagen, Denmark
p30
sVplace_id
p31
VChIJIz2AXDxTUkYRuGeU5t1-3QQ
p32
sVaddress_components
p33
(lp34
(dp35
Vlong_name
p36
VCopenhagen
p37
sVtypes
p38
(lp39
Vlocality
p40
aVpolitical
p41
asVshort_name
p42
VCopenhagen
p43
sa(dp44
Vlong_name
p45
VDenmark
p46
sVtypes
p47
(lp48
Vcountry
p49
aVpolitical
p50
asVshort_name
p51
VDK
p52
sasVpartial_match
p53
I01
sVtypes
p54
(lp55
Vlocality
p56
aVpolitical
p57
as.