(dp0
Vgeometry
p1
(dp2
Vlocation
p3
(dp4
Vlat
p5
F36.010814
sVlng
p6
F-78.928776
ssVviewport
p7
(dp8
Vnortheast
p9
(dp10
Vlat
p11
F36.0121629802915
sVlng
p12
F-78.92742701970849
ssVsouthwest
p13
(dp14
Vlat
p15
F36.0094650197085
sVlng
p16
F-78.9301249802915
sssVlocation_type
p17
VROOFTOP
p18
ssVaddress_components
p19
(lp20
(dp21
Vlong_name
p22
V2600
p23
sVtypes
p24
(lp25
Vstreet_number
p26
asVshort_name
p27
V2600
p28
sa(dp29
Vlong_name
p30
VHillsborough Road
p31
sVtypes
p32
(lp33
Vroute
p34
asVshort_name
p35
VHillsborough Rd
p36
sa(dp37
Vlong_name
p38
VOld West Durham
p39
sVtypes
p40
(lp41
Vneighborhood
p42
aVpolitical
p43
asVshort_name
p44
VOld West Durham
p45
sa(dp46
Vlong_name
p47
VDurham
p48
sVtypes
p49
(lp50
Vlocality
p51
aVpolitical
p52
asVshort_name
p53
VDurham
p54
sa(dp55
Vlong_name
p56
VDurham
p57
sVtypes
p58
(lp59
Vadministrative_area_level_3
p60
aVpolitical
p61
asVshort_name
p62
VDurham
p63
sa(dp64
Vlong_name
p65
VDurham County
p66
sVtypes
p67
(lp68
Vadministrative_area_level_2
p69
aVpolitical
p70
asVshort_name
p71
VDurham County
p72
sa(dp73
Vlong_name
p74
VNorth Carolina
p75
sVtypes
p76
(lp77
Vadministrative_area_level_1
p78
aVpolitical
p79
asVshort_name
p80
VNC
p81
sa(dp82
Vlong_name
p83
VUnited States
p84
sVtypes
p85
(lp86
Vcountry
p87
aVpolitical
p88
asVshort_name
p89
VUS
p90
sa(dp91
Vlong_name
p92
V27705
p93
sVtypes
p94
(lp95
Vpostal_code
p96
asVshort_name
p97
V27705
p98
sasVplace_id
p99
VChIJp6VlagfkrIkR0w9FUGjfX_E
p100
sVformatted_address
p101
V2600 Hillsborough Rd, Durham, NC 27705, USA
p102
sVtypes
p103
(lp104
Velectronics_store
p105
aVestablishment
p106
aVhome_goods_store
p107
aVpoint_of_interest
p108
aVstore
p109
as.