(dp0
Vgeometry
p1
(dp2
Vlocation
p3
(dp4
Vlat
p5
F49.2633531
sVlng
p6
F-123.1391261
ssVviewport
p7
(dp8
Vnortheast
p9
(dp10
Vlat
p11
F49.26470208029149
sVlng
p12
F-123.1377771197085
ssVsouthwest
p13
(dp14
Vlat
p15
F49.26200411970849
sVlng
p16
F-123.1404750802915
sssVlocation_type
p17
VROOFTOP
p18
ssVformatted_address
p19
V1508 West Broadway Ave, Suite 600, Vancouver, BC V6J 1W8, Canada
p20
sVplace_id
p21
VChIJ5c9ag8dzhlQR2n9JKFJ6PjQ
p22
sVaddress_components
p23
(lp24
(dp25
Vlong_name
p26
VSuite 600
p27
sVtypes
p28
(lp29
Vsubpremise
p30
asVshort_name
p31
VSuite 600
p32
sa(dp33
Vlong_name
p34
VFairview
p35
sVtypes
p36
(lp37
Vneighborhood
p38
aVpolitical
p39
asVshort_name
p40
VFairview
p41
sa(dp42
Vlong_name
p43
VVancouver
p44
sVtypes
p45
(lp46
Vlocality
p47
aVpolitical
p48
asVshort_name
p49
VVancouver
p50
sa(dp51
Vlong_name
p52
VGreater Vancouver
p53
sVtypes
p54
(lp55
Vadministrative_area_level_2
p56
aVpolitical
p57
asVshort_name
p58
VGreater Vancouver
p59
sa(dp60
Vlong_name
p61
VBritish Columbia
p62
sVtypes
p63
(lp64
Vadministrative_area_level_1
p65
aVpolitical
p66
asVshort_name
p67
VBC
p68
sa(dp69
Vlong_name
p70
VCanada
p71
sVtypes
p72
(lp73
Vcountry
p74
aVpolitical
p75
asVshort_name
p76
VCA
p77
sa(dp78
Vlong_name
p79
VV6J 1W8
p80
sVtypes
p81
(lp82
Vpostal_code
p83
asVshort_name
p84
VV6J 1W8
p85
sasVpartial_match
p86
I01
sVtypes
p87
(lp88
Vestablishment
p89
aVfinance
p90
aVpoint_of_interest
p91
as.