(dp0
Vgeometry
p1
(dp2
Vlocation
p3
(dp4
Vlat
p5
F38.4036269
sVlng
p6
F-122.8177274
ssVviewport
p7
(dp8
Vnortheast
p9
(dp10
Vlat
p11
F38.4049758802915
sVlng
p12
F-122.8163784197085
ssVsouthwest
p13
(dp14
Vlat
p15
F38.4022779197085
sVlng
p16
F-122.8190763802915
sssVlocation_type
p17
VROOFTOP
p18
ssVaddress_components
p19
(lp20
(dp21
Vlong_name
p22
V# 145
p23
sVtypes
p24
(lp25
Vsubpremise
p26
asVshort_name
p27
V# 145
p28
sa(dp29
Vlong_name
p30
V105
p31
sVtypes
p32
(lp33
Vstreet_number
p34
asVshort_name
p35
V105
p36
sa(dp37
Vlong_name
p38
VMorris Street
p39
sVtypes
p40
(lp41
Vroute
p42
asVshort_name
p43
VMorris St
p44
sa(dp45
Vlong_name
p46
VSebastopol
p47
sVtypes
p48
(lp49
Vlocality
p50
aVpolitical
p51
asVshort_name
p52
VSebastopol
p53
sa(dp54
Vlong_name
p55
VSonoma County
p56
sVtypes
p57
(lp58
Vadministrative_area_level_2
p59
aVpolitical
p60
asVshort_name
p61
VSonoma County
p62
sa(dp63
Vlong_name
p64
VCalifornia
p65
sVtypes
p66
(lp67
Vadministrative_area_level_1
p68
aVpolitical
p69
asVshort_name
p70
VCA
p71
sa(dp72
Vlong_name
p73
VUnited States
p74
sVtypes
p75
(lp76
Vcountry
p77
aVpolitical
p78
asVshort_name
p79
VUS
p80
sa(dp81
Vlong_name
p82
V95472
p83
sVtypes
p84
(lp85
Vpostal_code
p86
asVshort_name
p87
V95472
p88
sa(dp89
Vlong_name
p90
V3819
p91
sVtypes
p92
(lp93
Vpostal_code_suffix
p94
asVshort_name
p95
V3819
p96
sasVplace_id
p97
VChIJcfLP8KgwhIARYYAd4GEYUcM
p98
sVformatted_address
p99
V105 Morris St # 145, Sebastopol, CA 95472, USA
p100
sVtypes
p101
(lp102
Velectronics_store
p103
aVestablishment
p104
aVhome_goods_store
p105
aVpoint_of_interest
p106
aVstore
p107
as.