(dp0
Vgeometry
p1
(dp2
Vlocation
p3
(dp4
Vlat
p5
F-33.873801
sVlng
p6
F151.2077893
ssVviewport
p7
(dp8
Vnortheast
p9
(dp10
Vlat
p11
F-33.8724520197085
sVlng
p12
F151.2091382802915
ssVsouthwest
p13
(dp14
Vlat
p15
F-33.8751499802915
sVlng
p16
F151.2064403197085
sssVlocation_type
p17
VROOFTOP
p18
ssVaddress_components
p19
(lp20
(dp21
Vlong_name
p22
V327-329
p23
sVtypes
p24
(lp25
Vstreet_number
p26
asVshort_name
p27
V327-329
p28
sa(dp29
Vlong_name
p30
VPitt Street
p31
sVtypes
p32
(lp33
Vroute
p34
asVshort_name
p35
VPitt St
p36
sa(dp37
Vlong_name
p38
VSydney
p39
sVtypes
p40
(lp41
Vlocality
p42
aVpolitical
p43
asVshort_name
p44
VSydney
p45
sa(dp46
Vlong_name
p47
VCouncil of the City of Sydney
p48
sVtypes
p49
(lp50
Vadministrative_area_level_2
p51
aVpolitical
p52
asVshort_name
p53
VSydney
p54
sa(dp55
Vlong_name
p56
VNew South Wales
p57
sVtypes
p58
(lp59
Vadministrative_area_level_1
p60
aVpolitical
p61
asVshort_name
p62
VNSW
p63
sa(dp64
Vlong_name
p65
VAustralia
p66
sVtypes
p67
(lp68
Vcountry
p69
aVpolitical
p70
asVshort_name
p71
VAU
p72
sa(dp73
Vlong_name
p74
V2000
p75
sVtypes
p76
(lp77
Vpostal_code
p78
asVshort_name
p79
V2000
p80
sasVplace_id
p81
VChIJ211nzz2uEmsRPtk5xL1H4p8
p82
sVformatted_address
p83
V327-329 Pitt St, Sydney NSW 2000, Australia
p84
sVtypes
p85
(lp86
Velectronics_store
p87
aVestablishment
p88
aVhome_goods_store
p89
aVpoint_of_interest
p90
aVstore
p91
as.