(dp0
Vgeometry
p1
(dp2
Vlocation_type
p3
VGEOMETRIC_CENTER
p4
sVbounds
p5
(dp6
Vnortheast
p7
(dp8
Vlat
p9
F44.8724902
sVlng
p10
F-84.42110699999999
ssVsouthwest
p11
(dp12
Vlat
p13
F44.8706541
sVlng
p14
F-84.42695739999999
sssVviewport
p15
(dp16
Vnortheast
p17
(dp18
Vlat
p19
F44.87292113029149
sVlng
p20
F-84.42110699999999
ssVsouthwest
p21
(dp22
Vlat
p23
F44.8702231697085
sVlng
p24
F-84.42695739999999
sssVlocation
p25
(dp26
Vlat
p27
F44.8709983
sVlng
p28
F-84.4238859
sssVformatted_address
p29
VMink Trail, Johannesburg, MI 49751, USA
p30
sVplace_id
p31
VChIJKa3UqE8tNU0RZ2vI0lUtZXc
p32
sVaddress_components
p33
(lp34
(dp35
Vlong_name
p36
VMink Trail
p37
sVtypes
p38
(lp39
Vroute
p40
asVshort_name
p41
VMink Trail
p42
sa(dp43
Vlong_name
p44
VJohannesburg
p45
sVtypes
p46
(lp47
Vlocality
p48
aVpolitical
p49
asVshort_name
p50
VJohannesburg
p51
sa(dp52
Vlong_name
p53
VCharlton Township
p54
sVtypes
p55
(lp56
Vadministrative_area_level_3
p57
aVpolitical
p58
asVshort_name
p59
VCharlton Township
p60
sa(dp61
Vlong_name
p62
VOtsego County
p63
sVtypes
p64
(lp65
Vadministrative_area_level_2
p66
aVpolitical
p67
asVshort_name
p68
VOtsego County
p69
sa(dp70
Vlong_name
p71
VMichigan
p72
sVtypes
p73
(lp74
Vadministrative_area_level_1
p75
aVpolitical
p76
asVshort_name
p77
VMI
p78
sa(dp79
Vlong_name
p80
VUnited States
p81
sVtypes
p82
(lp83
Vcountry
p84
aVpolitical
p85
asVshort_name
p86
VUS
p87
sa(dp88
Vlong_name
p89
V49751
p90
sVtypes
p91
(lp92
Vpostal_code
p93
asVshort_name
p94
V49751
p95
sasVpartial_match
p96
I01
sVtypes
p97
(lp98
Vroute
p99
as.