(dp0
Vgeometry
p1
(dp2
Vlocation
p3
(dp4
Vlat
p5
F49.279879
sVlng
p6
F-123.1158861
ssVviewport
p7
(dp8
Vnortheast
p9
(dp10
Vlat
p11
F49.2812279802915
sVlng
p12
F-123.1145371197085
ssVsouthwest
p13
(dp14
Vlat
p15
F49.2785300197085
sVlng
p16
F-123.1172350802915
sssVlocation_type
p17
VGEOMETRIC_CENTER
p18
ssVaddress_components
p19
(lp20
(dp21
Vlong_name
p22
VVancouver
p23
sVtypes
p24
(lp25
Vlocality
p26
aVpolitical
p27
asVshort_name
p28
VVancouver
p29
sa(dp30
Vlong_name
p31
VCentral
p32
sVtypes
p33
(lp34
Vneighborhood
p35
aVpolitical
p36
asVshort_name
p37
VCentral
p38
sa(dp39
Vlong_name
p40
VGreater Vancouver
p41
sVtypes
p42
(lp43
Vadministrative_area_level_2
p44
aVpolitical
p45
asVshort_name
p46
VGreater Vancouver
p47
sa(dp48
Vlong_name
p49
VBritish Columbia
p50
sVtypes
p51
(lp52
Vadministrative_area_level_1
p53
aVpolitical
p54
asVshort_name
p55
VBC
p56
sa(dp57
Vlong_name
p58
VCanada
p59
sVtypes
p60
(lp61
Vcountry
p62
aVpolitical
p63
asVshort_name
p64
VCA
p65
sa(dp66
Vlong_name
p67
VV6B 3Y6
p68
sVtypes
p69
(lp70
Vpostal_code
p71
asVshort_name
p72
VV6B 3Y6
p73
sasVplace_id
p74
VChIJZWJbj35xhlQRVHtTi-g11-k
p75
sVformatted_address
p76
VVancouver, BC V6B 3Y6, Canada
p77
sVtypes
p78
(lp79
Vestablishment
p80
aVpoint_of_interest
p81
as.