(dp0
Vgeometry
p1
(dp2
Vlocation
p3
(dp4
Vlat
p5
F-43.5373075
sVlng
p6
F172.6364887
ssVviewport
p7
(dp8
Vnortheast
p9
(dp10
Vlat
p11
F-43.5359585197085
sVlng
p12
F172.6378376802915
ssVsouthwest
p13
(dp14
Vlat
p15
F-43.53865648029149
sVlng
p16
F172.6351397197085
sssVlocation_type
p17
VROOFTOP
p18
ssVaddress_components
p19
(lp20
(dp21
Vlong_name
p22
V569
p23
sVtypes
p24
(lp25
Vstreet_number
p26
asVshort_name
p27
V569
p28
sa(dp29
Vlong_name
p30
VColombo Street
p31
sVtypes
p32
(lp33
Vroute
p34
asVshort_name
p35
VColombo St
p36
sa(dp37
Vlong_name
p38
VChristchurch Central
p39
sVtypes
p40
(lp41
Vpolitical
p42
aVsublocality
p43
aVsublocality_level_1
p44
asVshort_name
p45
VChristchurch Central
p46
sa(dp47
Vlong_name
p48
VChristchurch
p49
sVtypes
p50
(lp51
Vlocality
p52
aVpolitical
p53
asVshort_name
p54
VChristchurch
p55
sa(dp56
Vlong_name
p57
VCanterbury
p58
sVtypes
p59
(lp60
Vadministrative_area_level_1
p61
aVpolitical
p62
asVshort_name
p63
VCanterbury
p64
sa(dp65
Vlong_name
p66
VNew Zealand
p67
sVtypes
p68
(lp69
Vcountry
p70
aVpolitical
p71
asVshort_name
p72
VNZ
p73
sa(dp74
Vlong_name
p75
V8011
p76
sVtypes
p77
(lp78
Vpostal_code
p79
asVshort_name
p80
V8011
p81
sasVplace_id
p82
VChIJC9pmdBeKMW0Rq_-6XvhClYo
p83
sVformatted_address
p84
V569 Colombo St, Christchurch Central, Christchurch 8011, New Zealand
p85
sVtypes
p86
(lp87
Velectronics_store
p88
aVestablishment
p89
aVhome_goods_store
p90
aVpoint_of_interest
p91
aVstore
p92
as.