(dp0
Vgeometry
p1
(dp2
Vlocation_type
p3
VAPPROXIMATE
p4
sVbounds
p5
(dp6
Vnortheast
p7
(dp8
Vlat
p9
F44.606254
sVlng
p10
F-123.2308399
ssVsouthwest
p11
(dp12
Vlat
p13
F44.5196909
sVlng
p14
F-123.3362331
sssVviewport
p15
(dp16
Vnortheast
p17
(dp18
Vlat
p19
F44.606254
sVlng
p20
F-123.2308399
ssVsouthwest
p21
(dp22
Vlat
p23
F44.5196909
sVlng
p24
F-123.3362331
sssVlocation
p25
(dp26
Vlat
p27
F44.5645659
sVlng
p28
F-123.2620435
sssVformatted_address
p29
VCorvallis, OR, USA
p30
sVplace_id
p31
VChIJfdcUqp1AwFQRvsC9Io-ADdc
p32
sVaddress_components
p33
(lp34
(dp35
Vlong_name
p36
VCorvallis
p37
sVtypes
p38
(lp39
Vlocality
p40
aVpolitical
p41
asVshort_name
p42
VCorvallis
p43
sa(dp44
Vlong_name
p45
VBenton County
p46
sVtypes
p47
(lp48
Vadministrative_area_level_2
p49
aVpolitical
p50
asVshort_name
p51
VBenton County
p52
sa(dp53
Vlong_name
p54
VOregon
p55
sVtypes
p56
(lp57
Vadministrative_area_level_1
p58
aVpolitical
p59
asVshort_name
p60
VOR
p61
sa(dp62
Vlong_name
p63
VUnited States
p64
sVtypes
p65
(lp66
Vcountry
p67
aVpolitical
p68
asVshort_name
p69
VUS
p70
sasVpartial_match
p71
I01
sVtypes
p72
(lp73
Vlocality
p74
aVpolitical
p75
as.