(dp0
Vgeometry
p1
(dp2
Vlocation_type
p3
VAPPROXIMATE
p4
sVbounds
p5
(dp6
Vnortheast
p7
(dp8
Vlat
p9
F51.6723432
sVlng
p10
F0.148271
ssVsouthwest
p11
(dp12
Vlat
p13
F51.38494009999999
sVlng
p14
F-0.3514683
sssVviewport
p15
(dp16
Vnortheast
p17
(dp18
Vlat
p19
F51.6723432
sVlng
p20
F0.148271
ssVsouthwest
p21
(dp22
Vlat
p23
F51.38494009999999
sVlng
p24
F-0.3514683
sssVlocation
p25
(dp26
Vlat
p27
F51.5073509
sVlng
p28
F-0.1277583
sssVaddress_components
p29
(lp30
(dp31
Vlong_name
p32
VLondon
p33
sVtypes
p34
(lp35
Vlocality
p36
aVpolitical
p37
asVshort_name
p38
VLondon
p39
sa(dp40
Vlong_name
p41
VLondon
p42
sVtypes
p43
(lp44
Vpostal_town
p45
asVshort_name
p46
VLondon
p47
sa(dp48
Vlong_name
p49
VGreater London
p50
sVtypes
p51
(lp52
Vadministrative_area_level_2
p53
aVpolitical
p54
asVshort_name
p55
VGreater London
p56
sa(dp57
Vlong_name
p58
VEngland
p59
sVtypes
p60
(lp61
Vadministrative_area_level_1
p62
aVpolitical
p63
asVshort_name
p64
VEngland
p65
sa(dp66
Vlong_name
p67
VUnited Kingdom
p68
sVtypes
p69
(lp70
Vcountry
p71
aVpolitical
p72
asVshort_name
p73
VGB
p74
sasVplace_id
p75
VChIJdd4hrwug2EcRmSrV3Vo6llI
p76
sVformatted_address
p77
VLondon, UK
p78
sVtypes
p79
(lp80
Vlocality
p81
aVpolitical
p82
as.