(dp0
Vgeometry
p1
(dp2
Vlocation
p3
(dp4
Vlat
p5
F47.54564999999999
sVlng
p6
F14.88096
ssVviewport
p7
(dp8
Vnortheast
p9
(dp10
Vlat
p11
F47.54699898029149
sVlng
p12
F14.8823089802915
ssVsouthwest
p13
(dp14
Vlat
p15
F47.5443010197085
sVlng
p16
F14.8796110197085
sssVlocation_type
p17
VROOFTOP
p18
ssVaddress_components
p19
(lp20
(dp21
Vlong_name
p22
V2
p23
sVtypes
p24
(lp25
Vstreet_number
p26
asVshort_name
p27
g23
sa(dp28
Vlong_name
p29
VHammerplatz
p30
sVtypes
p31
(lp32
Vroute
p33
asVshort_name
p34
VHammerpl.
p35
sa(dp36
Vlong_name
p37
VEisenerz
p38
sVtypes
p39
(lp40
Vlocality
p41
aVpolitical
p42
asVshort_name
p43
VEisenerz
p44
sa(dp45
Vlong_name
p46
VLeoben
p47
sVtypes
p48
(lp49
Vadministrative_area_level_2
p50
aVpolitical
p51
asVshort_name
p52
VLeoben
p53
sa(dp54
Vlong_name
p55
VSteiermark
p56
sVtypes
p57
(lp58
Vadministrative_area_level_1
p59
aVpolitical
p60
asVshort_name
p61
VSteiermark
p62
sa(dp63
Vlong_name
p64
VAustria
p65
sVtypes
p66
(lp67
Vcountry
p68
aVpolitical
p69
asVshort_name
p70
VAT
p71
sa(dp72
Vlong_name
p73
V8790
p74
sVtypes
p75
(lp76
Vpostal_code
p77
asVshort_name
p78
V8790
p79
sasVplace_id
p80
VChIJT2ujFVXscUcRIefuuiuykpQ
p81
sVformatted_address
p82
VHammerpl. 2, 8790 Eisenerz, Austria
p83
sVtypes
p84
(lp85
Velectronics_store
p86
aVestablishment
p87
aVhome_goods_store
p88
aVpoint_of_interest
p89
aVstore
p90
as.