(dp0
Vgeometry
p1
(dp2
Vlocation
p3
(dp4
Vlat
p5
F51.51812959999999
sVlng
p6
F-0.2041106
ssVviewport
p7
(dp8
Vnortheast
p9
(dp10
Vlat
p11
F51.51947858029149
sVlng
p12
F-0.202761619708498
ssVsouthwest
p13
(dp14
Vlat
p15
F51.5167806197085
sVlng
p16
F-0.205459580291502
sssVlocation_type
p17
VROOFTOP
p18
ssVaddress_components
p19
(lp20
(dp21
Vlong_name
p22
V19
p23
sVtypes
p24
(lp25
Vstreet_number
p26
asVshort_name
p27
V19
p28
sa(dp29
Vlong_name
p30
VAll Saints Road
p31
sVtypes
p32
(lp33
Vroute
p34
asVshort_name
p35
VAll Saints Rd
p36
sa(dp37
Vlong_name
p38
VLondon
p39
sVtypes
p40
(lp41
Vpostal_town
p42
asVshort_name
p43
VLondon
p44
sa(dp45
Vlong_name
p46
VGreater London
p47
sVtypes
p48
(lp49
Vadministrative_area_level_2
p50
aVpolitical
p51
asVshort_name
p52
VGreater London
p53
sa(dp54
Vlong_name
p55
VEngland
p56
sVtypes
p57
(lp58
Vadministrative_area_level_1
p59
aVpolitical
p60
asVshort_name
p61
VEngland
p62
sa(dp63
Vlong_name
p64
VUnited Kingdom
p65
sVtypes
p66
(lp67
Vcountry
p68
aVpolitical
p69
asVshort_name
p70
VGB
p71
sa(dp72
Vlong_name
p73
VW11 1HE
p74
sVtypes
p75
(lp76
Vpostal_code
p77
asVshort_name
p78
VW11 1HE
p79
sasVplace_id
p80
VChIJqRa5OBwQdkgRojd1-isJ1nI
p81
sVformatted_address
p82
V19 All Saints Rd, London W11 1HE, UK
p83
sVtypes
p84
(lp85
Velectronics_store
p86
aVestablishment
p87
aVhome_goods_store
p88
aVpoint_of_interest
p89
aVstore
p90
as.