(dp0
Vgeometry
p1
(dp2
Vlocation
p3
(dp4
Vlat
p5
F52.1636543
sVlng
p6
F5.345924
ssVviewport
p7
(dp8
Vnortheast
p9
(dp10
Vlat
p11
F52.16500328029151
sVlng
p12
F5.347272980291502
ssVsouthwest
p13
(dp14
Vlat
p15
F52.16230531970851
sVlng
p16
F5.344575019708499
sssVlocation_type
p17
VROOFTOP
p18
ssVaddress_components
p19
(lp20
(dp21
Vlong_name
p22
V22
p23
sVtypes
p24
(lp25
Vstreet_number
p26
asVshort_name
p27
V22
p28
sa(dp29
Vlong_name
p30
VSiliciumweg
p31
sVtypes
p32
(lp33
Vroute
p34
asVshort_name
p35
VSiliciumweg
p36
sa(dp37
Vlong_name
p38
VIndustriekwartier
p39
sVtypes
p40
(lp41
Vpolitical
p42
aVsublocality
p43
aVsublocality_level_1
p44
asVshort_name
p45
VIndustriekwartier
p46
sa(dp47
Vlong_name
p48
VAmersfoort
p49
sVtypes
p50
(lp51
Vlocality
p52
aVpolitical
p53
asVshort_name
p54
VAmersfoort
p55
sa(dp56
Vlong_name
p57
VAmersfoort
p58
sVtypes
p59
(lp60
Vadministrative_area_level_2
p61
aVpolitical
p62
asVshort_name
p63
VAmersfoort
p64
sa(dp65
Vlong_name
p66
VUtrecht
p67
sVtypes
p68
(lp69
Vadministrative_area_level_1
p70
aVpolitical
p71
asVshort_name
p72
VUT
p73
sa(dp74
Vlong_name
p75
VNetherlands
p76
sVtypes
p77
(lp78
Vcountry
p79
aVpolitical
p80
asVshort_name
p81
VNL
p82
sa(dp83
Vlong_name
p84
V3812 SX
p85
sVtypes
p86
(lp87
Vpostal_code
p88
asVshort_name
p89
V3812 SX
p90
sasVplace_id
p91
VChIJ9388BuBGxkcRQhdKYsxXSfo
p92
sVformatted_address
p93
VSiliciumweg 22, 3812 SX Amersfoort, Netherlands
p94
sVtypes
p95
(lp96
Vestablishment
p97
aVpoint_of_interest
p98
as.