(dp0
Vgeometry
p1
(dp2
Vlocation
p3
(dp4
Vlat
p5
F33.6891657
sVlng
p6
F-117.9880181
ssVviewport
p7
(dp8
Vnortheast
p9
(dp10
Vlat
p11
F33.69051468029149
sVlng
p12
F-117.9866691197085
ssVsouthwest
p13
(dp14
Vlat
p15
F33.68781671970849
sVlng
p16
F-117.9893670802915
sssVlocation_type
p17
VROOFTOP
p18
ssVaddress_components
p19
(lp20
(dp21
Vlong_name
p22
V104
p23
sVtypes
p24
(lp25
Vsubpremise
p26
asVshort_name
p27
V104
p28
sa(dp29
Vlong_name
p30
V18822
p31
sVtypes
p32
(lp33
Vstreet_number
p34
asVshort_name
p35
V18822
p36
sa(dp37
Vlong_name
p38
VBeach Boulevard
p39
sVtypes
p40
(lp41
Vroute
p42
asVshort_name
p43
VBeach Blvd
p44
sa(dp45
Vlong_name
p46
VHuntington Beach
p47
sVtypes
p48
(lp49
Vlocality
p50
aVpolitical
p51
asVshort_name
p52
VHuntington Beach
p53
sa(dp54
Vlong_name
p55
VOrange County
p56
sVtypes
p57
(lp58
Vadministrative_area_level_2
p59
aVpolitical
p60
asVshort_name
p61
VOrange County
p62
sa(dp63
Vlong_name
p64
VCalifornia
p65
sVtypes
p66
(lp67
Vadministrative_area_level_1
p68
aVpolitical
p69
asVshort_name
p70
VCA
p71
sa(dp72
Vlong_name
p73
VUnited States
p74
sVtypes
p75
(lp76
Vcountry
p77
aVpolitical
p78
asVshort_name
p79
VUS
p80
sa(dp81
Vlong_name
p82
V92648
p83
sVtypes
p84
(lp85
Vpostal_code
p86
asVshort_name
p87
V92648
p88
sasVplace_id
p89
VChIJD0tpV88m3YARhUG0PEz02yI
p90
sVformatted_address
p91
V18822 Beach Blvd #104, Huntington Beach, CA 92648, USA
p92
sVtypes
p93
(lp94
Velectronics_store
p95
aVestablishment
p96
aVhome_goods_store
p97
aVpoint_of_interest
p98
aVstore
p99
as.