(dp0
Vgeometry
p1
(dp2
Vlocation
p3
(dp4
Vlat
p5
F49.2689191
sVlng
p6
F-123.0986476
ssVviewport
p7
(dp8
Vnortheast
p9
(dp10
Vlat
p11
F49.2702680802915
sVlng
p12
F-123.0972986197085
ssVsouthwest
p13
(dp14
Vlat
p15
F49.2675701197085
sVlng
p16
F-123.0999965802915
sssVlocation_type
p17
VROOFTOP
p18
ssVaddress_components
p19
(lp20
(dp21
Vlong_name
p22
V200
p23
sVtypes
p24
(lp25
Vsubpremise
p26
asVshort_name
p27
V200
p28
sa(dp29
Vlong_name
p30
V252
p31
sVtypes
p32
(lp33
Vstreet_number
p34
asVshort_name
p35
V252
p36
sa(dp37
Vlong_name
p38
VEast 1st Avenue
p39
sVtypes
p40
(lp41
Vroute
p42
asVshort_name
p43
VE 1st Ave
p44
sa(dp45
Vlong_name
p46
VEast Side
p47
sVtypes
p48
(lp49
Vneighborhood
p50
aVpolitical
p51
asVshort_name
p52
VEast Side
p53
sa(dp54
Vlong_name
p55
VVancouver
p56
sVtypes
p57
(lp58
Vlocality
p59
aVpolitical
p60
asVshort_name
p61
VVancouver
p62
sa(dp63
Vlong_name
p64
VGreater Vancouver
p65
sVtypes
p66
(lp67
Vadministrative_area_level_2
p68
aVpolitical
p69
asVshort_name
p70
VGreater Vancouver
p71
sa(dp72
Vlong_name
p73
VBritish Columbia
p74
sVtypes
p75
(lp76
Vadministrative_area_level_1
p77
aVpolitical
p78
asVshort_name
p79
VBC
p80
sa(dp81
Vlong_name
p82
VCanada
p83
sVtypes
p84
(lp85
Vcountry
p86
aVpolitical
p87
asVshort_name
p88
VCA
p89
sa(dp90
Vlong_name
p91
VV5T 1A7
p92
sVtypes
p93
(lp94
Vpostal_code
p95
asVshort_name
p96
VV5T 1A7
p97
sasVplace_id
p98
VChIJ2yINJ2FxhlQR28bLPKfbyIA
p99
sVformatted_address
p100
V252 E 1st Ave #200, Vancouver, BC V5T 1A7, Canada
p101
sVtypes
p102
(lp103
Vestablishment
p104
aVpoint_of_interest
p105
as.