(dp0
Vgeometry
p1
(dp2
Vlocation
p3
(dp4
Vlat
p5
F40.679784
sVlng
p6
F-73.963867
ssVviewport
p7
(dp8
Vnortheast
p9
(dp10
Vlat
p11
F40.6811329802915
sVlng
p12
F-73.96251801970848
ssVsouthwest
p13
(dp14
Vlat
p15
F40.6784350197085
sVlng
p16
F-73.96521598029149
sssVlocation_type
p17
VROOFTOP
p18
ssVaddress_components
p19
(lp20
(dp21
Vlong_name
p22
V595
p23
sVtypes
p24
(lp25
Vstreet_number
p26
asVshort_name
p27
V595
p28
sa(dp29
Vlong_name
p30
VWashington Avenue
p31
sVtypes
p32
(lp33
Vroute
p34
asVshort_name
p35
VWashington Ave
p36
sa(dp37
Vlong_name
p38
VCrown Heights
p39
sVtypes
p40
(lp41
Vneighborhood
p42
aVpolitical
p43
asVshort_name
p44
VCrown Heights
p45
sa(dp46
Vlong_name
p47
VBrooklyn
p48
sVtypes
p49
(lp50
Vpolitical
p51
aVsublocality
p52
aVsublocality_level_1
p53
asVshort_name
p54
VBrooklyn
p55
sa(dp56
Vlong_name
p57
VKings County
p58
sVtypes
p59
(lp60
Vadministrative_area_level_2
p61
aVpolitical
p62
asVshort_name
p63
VKings County
p64
sa(dp65
Vlong_name
p66
VNew York
p67
sVtypes
p68
(lp69
Vadministrative_area_level_1
p70
aVpolitical
p71
asVshort_name
p72
VNY
p73
sa(dp74
Vlong_name
p75
VUnited States
p76
sVtypes
p77
(lp78
Vcountry
p79
aVpolitical
p80
asVshort_name
p81
VUS
p82
sa(dp83
Vlong_name
p84
V11238
p85
sVtypes
p86
(lp87
Vpostal_code
p88
asVshort_name
p89
V11238
p90
sa(dp91
Vlong_name
p92
V3124
p93
sVtypes
p94
(lp95
Vpostal_code_suffix
p96
asVshort_name
p97
V3124
p98
sasVplace_id
p99
VChIJ1XP-vaNbwokR6R-iK-wGMQY
p100
sVformatted_address
p101
V595 Washington Ave, Brooklyn, NY 11238, USA
p102
sVtypes
p103
(lp104
Velectronics_store
p105
aVestablishment
p106
aVhome_goods_store
p107
aVpoint_of_interest
p108
aVstore
p109
as.