(dp0
Vgeometry
p1
(dp2
Vlocation
p3
(dp4
Vlat
p5
F44.96047799999999
sVlng
p6
F-93.362432
ssVviewport
p7
(dp8
Vnortheast
p9
(dp10
Vlat
p11
F44.9618269802915
sVlng
p12
F-93.3610830197085
ssVsouthwest
p13
(dp14
Vlat
p15
F44.9591290197085
sVlng
p16
F-93.36378098029151
sssVlocation_type
p17
VROOFTOP
p18
ssVaddress_components
p19
(lp20
(dp21
Vlong_name
p22
V# B
p23
sVtypes
p24
(lp25
Vsubpremise
p26
asVshort_name
p27
V# B
p28
sa(dp29
Vlong_name
p30
V2240
p31
sVtypes
p32
(lp33
Vstreet_number
p34
asVshort_name
p35
V2240
p36
sa(dp37
Vlong_name
p38
VEdgewood Avenue South
p39
sVtypes
p40
(lp41
Vroute
p42
asVshort_name
p43
VEdgewood Ave S
p44
sa(dp45
Vlong_name
p46
VEliot
p47
sVtypes
p48
(lp49
Vneighborhood
p50
aVpolitical
p51
asVshort_name
p52
VEliot
p53
sa(dp54
Vlong_name
p55
VMinneapolis
p56
sVtypes
p57
(lp58
Vlocality
p59
aVpolitical
p60
asVshort_name
p61
VMinneapolis
p62
sa(dp63
Vlong_name
p64
VHennepin County
p65
sVtypes
p66
(lp67
Vadministrative_area_level_2
p68
aVpolitical
p69
asVshort_name
p70
VHennepin County
p71
sa(dp72
Vlong_name
p73
VMinnesota
p74
sVtypes
p75
(lp76
Vadministrative_area_level_1
p77
aVpolitical
p78
asVshort_name
p79
VMN
p80
sa(dp81
Vlong_name
p82
VUnited States
p83
sVtypes
p84
(lp85
Vcountry
p86
aVpolitical
p87
asVshort_name
p88
VUS
p89
sa(dp90
Vlong_name
p91
V55426
p92
sVtypes
p93
(lp94
Vpostal_code
p95
asVshort_name
p96
V55426
p97
sa(dp98
Vlong_name
p99
V2865
p100
sVtypes
p101
(lp102
Vpostal_code_suffix
p103
asVshort_name
p104
V2865
p105
sasVplace_id
p106
VChIJz6mtLMY0s1IRhcELDjQZTkI
p107
sVformatted_address
p108
V2240 Edgewood Ave S # B, Minneapolis, MN 55426, USA
p109
sVtypes
p110
(lp111
Velectronics_store
p112
aVestablishment
p113
aVhome_goods_store
p114
aVpoint_of_interest
p115
aVstore
p116
as.