(dp0
Vgeometry
p1
(dp2
Vlocation_type
p3
VAPPROXIMATE
p4
sVbounds
p5
(dp6
Vnortheast
p7
(dp8
Vlat
p9
F45.5348251
sVlng
p10
F9.0100677
ssVsouthwest
p11
(dp12
Vlat
p13
F45.5046117
sVlng
p14
F8.961084999999999
sssVviewport
p15
(dp16
Vnortheast
p17
(dp18
Vlat
p19
F45.5348251
sVlng
p20
F9.0100677
ssVsouthwest
p21
(dp22
Vlat
p23
F45.5046117
sVlng
p24
F8.961084999999999
sssVlocation
p25
(dp26
Vlat
p27
F45.5170735
sVlng
p28
F8.9854194
sssVformatted_address
p29
V20010 Vanzago, Metropolitan City of Milan, Italy
p30
sVplace_id
p31
VChIJn29UJ5XshkcRwFwMOXnfpCQ
p32
sVaddress_components
p33
(lp34
(dp35
Vlong_name
p36
VVanzago
p37
sVtypes
p38
(lp39
Vadministrative_area_level_3
p40
aVpolitical
p41
asVshort_name
p42
VVanzago
p43
sa(dp44
Vlong_name
p45
VMetropolitan City of Milan
p46
sVtypes
p47
(lp48
Vadministrative_area_level_2
p49
aVpolitical
p50
asVshort_name
p51
VMI
p52
sa(dp53
Vlong_name
p54
VLombardy
p55
sVtypes
p56
(lp57
Vadministrative_area_level_1
p58
aVpolitical
p59
asVshort_name
p60
VLombardy
p61
sa(dp62
Vlong_name
p63
VItaly
p64
sVtypes
p65
(lp66
Vcountry
p67
aVpolitical
p68
asVshort_name
p69
VIT
p70
sa(dp71
Vlong_name
p72
V20010
p73
sVtypes
p74
(lp75
Vpostal_code
p76
asVshort_name
p77
V20010
p78
sasVpartial_match
p79
I01
sVtypes
p80
(lp81
Vadministrative_area_level_3
p82
aVpolitical
p83
as.