(dp0
Vgeometry
p1
(dp2
Vlocation
p3
(dp4
Vlat
p5
F42.9296505
sVlng
p6
F-87.91758109999999
ssVviewport
p7
(dp8
Vnortheast
p9
(dp10
Vlat
p11
F42.9309994802915
sVlng
p12
F-87.91623211970848
ssVsouthwest
p13
(dp14
Vlat
p15
F42.9283015197085
sVlng
p16
F-87.91893008029149
sssVlocation_type
p17
VGEOMETRIC_CENTER
p18
ssVformatted_address
p19
VOak Creek, WI 53154, USA
p20
sVplace_id
p21
VChIJX898mKMWBYgRmg1gGfzb82g
p22
sVaddress_components
p23
(lp24
(dp25
Vlong_name
p26
VUnited States
p27
sVtypes
p28
(lp29
Vcountry
p30
aVpolitical
p31
asVshort_name
p32
VUS
p33
sa(dp34
Vlong_name
p35
VOak Creek
p36
sVtypes
p37
(lp38
Vlocality
p39
aVpolitical
p40
asVshort_name
p41
VOak Creek
p42
sa(dp43
Vlong_name
p44
VMilwaukee County
p45
sVtypes
p46
(lp47
Vadministrative_area_level_2
p48
aVpolitical
p49
asVshort_name
p50
VMilwaukee County
p51
sa(dp52
Vlong_name
p53
VWisconsin
p54
sVtypes
p55
(lp56
Vadministrative_area_level_1
p57
aVpolitical
p58
asVshort_name
p59
VWI
p60
sa(dp61
Vlong_name
p62
V53154
p63
sVtypes
p64
(lp65
Vpostal_code
p66
asVshort_name
p67
V53154
p68
sasVpartial_match
p69
I01
sVtypes
p70
(lp71
Vbus_station
p72
aVestablishment
p73
aVpoint_of_interest
p74
aVtransit_station
p75
as.