(dp0
Vgeometry
p1
(dp2
Vlocation
p3
(dp4
Vlat
p5
F45.9609471
sVlng
p6
F12.6617138
ssVviewport
p7
(dp8
Vnortheast
p9
(dp10
Vlat
p11
F45.9622960802915
sVlng
p12
F12.6630627802915
ssVsouthwest
p13
(dp14
Vlat
p15
F45.9595981197085
sVlng
p16
F12.6603648197085
sssVlocation_type
p17
VROOFTOP
p18
ssVaddress_components
p19
(lp20
(dp21
Vlong_name
p22
V2
p23
sVtypes
p24
(lp25
Vstreet_number
p26
asVshort_name
p27
g23
sa(dp28
Vlong_name
p29
VVia Sturzo Luigi
p30
sVtypes
p31
(lp32
Vroute
p33
asVshort_name
p34
VVia Sturzo Luigi
p35
sa(dp36
Vlong_name
p37
VPordenone
p38
sVtypes
p39
(lp40
Vlocality
p41
aVpolitical
p42
asVshort_name
p43
VPordenone
p44
sa(dp45
Vlong_name
p46
VPordenone
p47
sVtypes
p48
(lp49
Vadministrative_area_level_3
p50
aVpolitical
p51
asVshort_name
p52
VPordenone
p53
sa(dp54
Vlong_name
p55
VProvincia di Pordenone
p56
sVtypes
p57
(lp58
Vadministrative_area_level_2
p59
aVpolitical
p60
asVshort_name
p61
VPN
p62
sa(dp63
Vlong_name
p64
VFriuli-Venezia Giulia
p65
sVtypes
p66
(lp67
Vadministrative_area_level_1
p68
aVpolitical
p69
asVshort_name
p70
VFriuli-Venezia Giulia
p71
sa(dp72
Vlong_name
p73
VItaly
p74
sVtypes
p75
(lp76
Vcountry
p77
aVpolitical
p78
asVshort_name
p79
VIT
p80
sa(dp81
Vlong_name
p82
V33170
p83
sVtypes
p84
(lp85
Vpostal_code
p86
asVshort_name
p87
V33170
p88
sasVplace_id
p89
VChIJ_eINirFkeUcRugJa1tyDxH8
p90
sVformatted_address
p91
VVia Sturzo Luigi, 2, 33170 Pordenone PN, Italy
p92
sVtypes
p93
(lp94
Vbar
p95
aVestablishment
p96
aVpoint_of_interest
p97
as.