(dp0
Vgeometry
p1
(dp2
Vlocation
p3
(dp4
Vlat
p5
F41.3115558
sVlng
p6
F-105.5913413
ssVviewport
p7
(dp8
Vnortheast
p9
(dp10
Vlat
p11
F41.3129047802915
sVlng
p12
F-105.5899923197085
ssVsouthwest
p13
(dp14
Vlat
p15
F41.3102068197085
sVlng
p16
F-105.5926902802915
sssVlocation_type
p17
VROOFTOP
p18
ssVformatted_address
p19
V420 E Ivinson Ave, Laramie, WY 82070, USA
p20
sVplace_id
p21
VChIJKXAz0R2QaIcR1_vn_mCPZS4
p22
sVaddress_components
p23
(lp24
(dp25
Vlong_name
p26
V420
p27
sVtypes
p28
(lp29
Vstreet_number
p30
asVshort_name
p31
V420
p32
sa(dp33
Vlong_name
p34
VEast Ivinson Avenue
p35
sVtypes
p36
(lp37
Vroute
p38
asVshort_name
p39
VE Ivinson Ave
p40
sa(dp41
Vlong_name
p42
VLaramie
p43
sVtypes
p44
(lp45
Vlocality
p46
aVpolitical
p47
asVshort_name
p48
VLaramie
p49
sa(dp50
Vlong_name
p51
VAlbany County
p52
sVtypes
p53
(lp54
Vadministrative_area_level_2
p55
aVpolitical
p56
asVshort_name
p57
VAlbany County
p58
sa(dp59
Vlong_name
p60
VWyoming
p61
sVtypes
p62
(lp63
Vadministrative_area_level_1
p64
aVpolitical
p65
asVshort_name
p66
VWY
p67
sa(dp68
Vlong_name
p69
VUnited States
p70
sVtypes
p71
(lp72
Vcountry
p73
aVpolitical
p74
asVshort_name
p75
VUS
p76
sa(dp77
Vlong_name
p78
V82070
p79
sVtypes
p80
(lp81
Vpostal_code
p82
asVshort_name
p83
V82070
p84
sasVpartial_match
p85
I01
sVtypes
p86
(lp87
Vestablishment
p88
aVpoint_of_interest
p89
aVpolice
p90
as.