(dp0
Vgeometry
p1
(dp2
Vlocation
p3
(dp4
Vlat
p5
F-19.9696076
sVlng
p6
F-43.9508134
ssVviewport
p7
(dp8
Vnortheast
p9
(dp10
Vlat
p11
F-19.9682586197085
sVlng
p12
F-43.94946441970851
ssVsouthwest
p13
(dp14
Vlat
p15
F-19.9709565802915
sVlng
p16
F-43.9521623802915
sssVlocation_type
p17
VROOFTOP
p18
ssVaddress_components
p19
(lp20
(dp21
Vlong_name
p22
V10
p23
sVtypes
p24
(lp25
Vstreet_number
p26
asVshort_name
p27
V10
p28
sa(dp29
Vlong_name
p30
VRua Saturno
p31
sVtypes
p32
(lp33
Vroute
p34
asVshort_name
p35
VR. Saturno
p36
sa(dp37
Vlong_name
p38
VSanta Lucia
p39
sVtypes
p40
(lp41
Vpolitical
p42
aVsublocality
p43
aVsublocality_level_1
p44
asVshort_name
p45
VSanta Lucia
p46
sa(dp47
Vlong_name
p48
VBelo Horizonte
p49
sVtypes
p50
(lp51
Vadministrative_area_level_2
p52
aVpolitical
p53
asVshort_name
p54
VBelo Horizonte
p55
sa(dp56
Vlong_name
p57
VMinas Gerais
p58
sVtypes
p59
(lp60
Vadministrative_area_level_1
p61
aVpolitical
p62
asVshort_name
p63
VMG
p64
sa(dp65
Vlong_name
p66
VBrazil
p67
sVtypes
p68
(lp69
Vcountry
p70
aVpolitical
p71
asVshort_name
p72
VBR
p73
sa(dp74
Vlong_name
p75
V30360-560
p76
sVtypes
p77
(lp78
Vpostal_code
p79
asVshort_name
p80
V30360-560
p81
sasVplace_id
p82
VChIJlYshCPGXpgARPDlDJdFOOc8
p83
sVformatted_address
p84
VR. Saturno, 10 - Santa Lucia, Belo Horizonte - MG, 30360-560, Brazil
p85
sVtypes
p86
(lp87
Vestablishment
p88
aVpoint_of_interest
p89
as.