(dp0
Vgeometry
p1
(dp2
Vlocation
p3
(dp4
Vlat
p5
F51.536454
sVlng
p6
F-0.07829900000000001
ssVviewport
p7
(dp8
Vnortheast
p9
(dp10
Vlat
p11
F51.5378029802915
sVlng
p12
F-0.07695001970849798
ssVsouthwest
p13
(dp14
Vlat
p15
F51.5351050197085
sVlng
p16
F-0.07964798029150205
sssVlocation_type
p17
VGEOMETRIC_CENTER
p18
ssVaddress_components
p19
(lp20
(dp21
Vlong_name
p22
VLondon
p23
sVtypes
p24
(lp25
Vpostal_town
p26
asVshort_name
p27
VLondon
p28
sa(dp29
Vlong_name
p30
VUnited Kingdom
p31
sVtypes
p32
(lp33
Vcountry
p34
aVpolitical
p35
asVshort_name
p36
VGB
p37
sa(dp38
Vlong_name
p39
VN1 5QJ
p40
sVtypes
p41
(lp42
Vpostal_code
p43
asVshort_name
p44
VN1 5QJ
p45
sasVplace_id
p46
VChIJtYxCJJYcdkgRfE6CQYCEr5A
p47
sVformatted_address
p48
VThe Waterhouse, 8 Orsman Road, London N1 5QJ, United Kingdom
p49
sVtypes
p50
(lp51
Velectronics_store
p52
aVestablishment
p53
aVhome_goods_store
p54
aVpoint_of_interest
p55
aVstore
p56
as.