(dp0
Vgeometry
p1
(dp2
Vlocation
p3
(dp4
Vlat
p5
F51.6616552
sVlng
p6
F8.7736085
ssVviewport
p7
(dp8
Vnortheast
p9
(dp10
Vlat
p11
F51.6630041802915
sVlng
p12
F8.774957480291503
ssVsouthwest
p13
(dp14
Vlat
p15
F51.6603062197085
sVlng
p16
F8.772259519708498
sssVlocation_type
p17
VROOFTOP
p18
ssVaddress_components
p19
(lp20
(dp21
Vlong_name
p22
V20
p23
sVtypes
p24
(lp25
Vstreet_number
p26
asVshort_name
p27
V20
p28
sa(dp29
Vlong_name
p30
VSchloss Hamborn
p31
sVtypes
p32
(lp33
Vroute
p34
asVshort_name
p35
VSchloss Hamborn
p36
sa(dp37
Vlong_name
p38
VSchloss Hamborn
p39
sVtypes
p40
(lp41
Vpolitical
p42
aVsublocality
p43
aVsublocality_level_1
p44
asVshort_name
p45
VSchloss Hamborn
p46
sa(dp47
Vlong_name
p48
VBorchen
p49
sVtypes
p50
(lp51
Vlocality
p52
aVpolitical
p53
asVshort_name
p54
VBorchen
p55
sa(dp56
Vlong_name
p57
VPaderborn
p58
sVtypes
p59
(lp60
Vadministrative_area_level_3
p61
aVpolitical
p62
asVshort_name
p63
VPB
p64
sa(dp65
Vlong_name
p66
VDetmold
p67
sVtypes
p68
(lp69
Vadministrative_area_level_2
p70
aVpolitical
p71
asVshort_name
p72
VDetmold
p73
sa(dp74
Vlong_name
p75
VNordrhein-Westfalen
p76
sVtypes
p77
(lp78
Vadministrative_area_level_1
p79
aVpolitical
p80
asVshort_name
p81
VNRW
p82
sa(dp83
Vlong_name
p84
VGermany
p85
sVtypes
p86
(lp87
Vcountry
p88
aVpolitical
p89
asVshort_name
p90
VDE
p91
sa(dp92
Vlong_name
p93
V33178
p94
sVtypes
p95
(lp96
Vpostal_code
p97
asVshort_name
p98
V33178
p99
sasVplace_id
p100
VChIJCRnwVv2yu0cRSZjh0NBkABc
p101
sVformatted_address
p102
VSchloss Hamborn 20, 33178 Borchen, Germany
p103
sVtypes
p104
(lp105
Vestablishment
p106
aVpoint_of_interest
p107
as.