(dp0
Vgeometry
p1
(dp2
Vlocation
p3
(dp4
Vlat
p5
F47.6030559
sVlng
p6
F-122.3294146
ssVviewport
p7
(dp8
Vnortheast
p9
(dp10
Vlat
p11
F47.6044048802915
sVlng
p12
F-122.3280656197085
ssVsouthwest
p13
(dp14
Vlat
p15
F47.6017069197085
sVlng
p16
F-122.3307635802915
sssVlocation_type
p17
VROOFTOP
p18
ssVformatted_address
p19
V500 4th Ave S #401, Seattle, WA 98104, USA
p20
sVplace_id
p21
VChIJDciYbbpqkFQRKiK0HtOmXaQ
p22
sVaddress_components
p23
(lp24
(dp25
Vlong_name
p26
V401
p27
sVtypes
p28
(lp29
Vsubpremise
p30
asVshort_name
p31
V401
p32
sa(dp33
Vlong_name
p34
V500
p35
sVtypes
p36
(lp37
Vstreet_number
p38
asVshort_name
p39
V500
p40
sa(dp41
Vlong_name
p42
V4th Avenue South
p43
sVtypes
p44
(lp45
Vroute
p46
asVshort_name
p47
V4th Ave S
p48
sa(dp49
Vlong_name
p50
VDowntown
p51
sVtypes
p52
(lp53
Vneighborhood
p54
aVpolitical
p55
asVshort_name
p56
VDowntown
p57
sa(dp58
Vlong_name
p59
VSeattle
p60
sVtypes
p61
(lp62
Vlocality
p63
aVpolitical
p64
asVshort_name
p65
VSeattle
p66
sa(dp67
Vlong_name
p68
VKing County
p69
sVtypes
p70
(lp71
Vadministrative_area_level_2
p72
aVpolitical
p73
asVshort_name
p74
VKing County
p75
sa(dp76
Vlong_name
p77
VWashington
p78
sVtypes
p79
(lp80
Vadministrative_area_level_1
p81
aVpolitical
p82
asVshort_name
p83
VWA
p84
sa(dp85
Vlong_name
p86
VUnited States
p87
sVtypes
p88
(lp89
Vcountry
p90
aVpolitical
p91
asVshort_name
p92
VUS
p93
sa(dp94
Vlong_name
p95
V98104
p96
sVtypes
p97
(lp98
Vpostal_code
p99
asVshort_name
p100
V98104
p101
sa(dp102
Vlong_name
p103
V2395
p104
sVtypes
p105
(lp106
Vpostal_code_suffix
p107
asVshort_name
p108
V2395
p109
sasVpartial_match
p110
I01
sVtypes
p111
(lp112
Vestablishment
p113
aVlocal_government_office
p114
aVpoint_of_interest
p115
as.