(dp0
Vgeometry
p1
(dp2
Vlocation_type
p3
VAPPROXIMATE
p4
sVbounds
p5
(dp6
Vnortheast
p7
(dp8
Vlat
p9
F53.4211999
sVlng
p10
F18.4708848
ssVsouthwest
p11
(dp12
Vlat
p13
F53.3856844
sVlng
p14
F18.356935
sssVviewport
p15
(dp16
Vnortheast
p17
(dp18
Vlat
p19
F53.4211999
sVlng
p20
F18.4708848
ssVsouthwest
p21
(dp22
Vlat
p23
F53.3856844
sVlng
p24
F18.356935
sssVlocation
p25
(dp26
Vlat
p27
F53.4093843
sVlng
p28
F18.4473863
sssVformatted_address
p29
VSwiecie, Poland
p30
sVplace_id
p31
VChIJFeGQx0veAkcRiocYLJjJZVM
p32
sVaddress_components
p33
(lp34
(dp35
Vlong_name
p36
VSwiecie
p37
sVtypes
p38
(lp39
Vlocality
p40
aVpolitical
p41
asVshort_name
p42
VSwiecie
p43
sa(dp44
Vlong_name
p45
V\u015awiecie County
p46
sVtypes
p47
(lp48
Vadministrative_area_level_2
p49
aVpolitical
p50
asVshort_name
p51
V\u015awiecie County
p52
sa(dp53
Vlong_name
p54
VKuyavian-Pomeranian Voivodeship
p55
sVtypes
p56
(lp57
Vadministrative_area_level_1
p58
aVpolitical
p59
asVshort_name
p60
VKuyavian-Pomeranian Voivodeship
p61
sa(dp62
Vlong_name
p63
VPoland
p64
sVtypes
p65
(lp66
Vcountry
p67
aVpolitical
p68
asVshort_name
p69
VPL
p70
sa(dp71
Vlong_name
p72
V86
p73
sVtypes
p74
(lp75
Vpostal_code
p76
aVpostal_code_prefix
p77
asVshort_name
p78
V86
p79
sasVpartial_match
p80
I01
sVtypes
p81
(lp82
Vlocality
p83
aVpolitical
p84
as.