(dp0
Vgeometry
p1
(dp2
Vlocation_type
p3
VGEOMETRIC_CENTER
p4
sVbounds
p5
(dp6
Vnortheast
p7
(dp8
Vlat
p9
F30.2631154
sVlng
p10
F-97.71275109999999
ssVsouthwest
p11
(dp12
Vlat
p13
F30.251327
sVlng
p14
F-97.7182462
sssVviewport
p15
(dp16
Vnortheast
p17
(dp18
Vlat
p19
F30.2631154
sVlng
p20
F-97.71275109999999
ssVsouthwest
p21
(dp22
Vlat
p23
F30.251327
sVlng
p24
F-97.7182462
sssVlocation
p25
(dp26
Vlat
p27
F30.2572189
sVlng
p28
F-97.7154223
sssVformatted_address
p29
VPedernales St, Austin, TX 78702, USA
p30
sVplace_id
p31
VChIJg2Jddsu1RIYRMTiWEOYei1o
p32
sVaddress_components
p33
(lp34
(dp35
Vlong_name
p36
VPedernales Street
p37
sVtypes
p38
(lp39
Vroute
p40
asVshort_name
p41
VPedernales St
p42
sa(dp43
Vlong_name
p44
VEast Austin
p45
sVtypes
p46
(lp47
Vneighborhood
p48
aVpolitical
p49
asVshort_name
p50
VEast Austin
p51
sa(dp52
Vlong_name
p53
VAustin
p54
sVtypes
p55
(lp56
Vlocality
p57
aVpolitical
p58
asVshort_name
p59
VAustin
p60
sa(dp61
Vlong_name
p62
VTravis County
p63
sVtypes
p64
(lp65
Vadministrative_area_level_2
p66
aVpolitical
p67
asVshort_name
p68
VTravis County
p69
sa(dp70
Vlong_name
p71
VTexas
p72
sVtypes
p73
(lp74
Vadministrative_area_level_1
p75
aVpolitical
p76
asVshort_name
p77
VTX
p78
sa(dp79
Vlong_name
p80
VUnited States
p81
sVtypes
p82
(lp83
Vcountry
p84
aVpolitical
p85
asVshort_name
p86
VUS
p87
sa(dp88
Vlong_name
p89
V78702
p90
sVtypes
p91
(lp92
Vpostal_code
p93
asVshort_name
p94
V78702
p95
sasVpartial_match
p96
I01
sVtypes
p97
(lp98
Vroute
p99
as.