(dp0
Vgeometry
p1
(dp2
Vlocation
p3
(dp4
Vlat
p5
F44.969421
sVlng
p6
F-93.2476507
ssVviewport
p7
(dp8
Vnortheast
p9
(dp10
Vlat
p11
F44.97076998029149
sVlng
p12
F-93.24630171970848
ssVsouthwest
p13
(dp14
Vlat
p15
F44.96807201970849
sVlng
p16
F-93.2489996802915
sssVlocation_type
p17
VROOFTOP
p18
ssVaddress_components
p19
(lp20
(dp21
Vlong_name
p22
V416
p23
sVtypes
p24
(lp25
Vstreet_number
p26
asVshort_name
p27
V416
p28
sa(dp29
Vlong_name
p30
VCedar Avenue South
p31
sVtypes
p32
(lp33
Vroute
p34
asVshort_name
p35
VCedar Ave S
p36
sa(dp37
Vlong_name
p38
VCedar-Riverside
p39
sVtypes
p40
(lp41
Vneighborhood
p42
aVpolitical
p43
asVshort_name
p44
VCedar-Riverside
p45
sa(dp46
Vlong_name
p47
VMinneapolis
p48
sVtypes
p49
(lp50
Vlocality
p51
aVpolitical
p52
asVshort_name
p53
VMinneapolis
p54
sa(dp55
Vlong_name
p56
VHennepin County
p57
sVtypes
p58
(lp59
Vadministrative_area_level_2
p60
aVpolitical
p61
asVshort_name
p62
VHennepin County
p63
sa(dp64
Vlong_name
p65
VMinnesota
p66
sVtypes
p67
(lp68
Vadministrative_area_level_1
p69
aVpolitical
p70
asVshort_name
p71
VMN
p72
sa(dp73
Vlong_name
p74
VUnited States
p75
sVtypes
p76
(lp77
Vcountry
p78
aVpolitical
p79
asVshort_name
p80
VUS
p81
sa(dp82
Vlong_name
p83
V55454
p84
sVtypes
p85
(lp86
Vpostal_code
p87
asVshort_name
p88
V55454
p89
sa(dp90
Vlong_name
p91
V1033
p92
sVtypes
p93
(lp94
Vpostal_code_suffix
p95
asVshort_name
p96
V1033
p97
sasVplace_id
p98
VChIJv1UdCkMts1IRJx2heTQYc4w
p99
sVformatted_address
p100
V416 Cedar Ave S, Minneapolis, MN 55454, USA
p101
sVtypes
p102
(lp103
Vestablishment
p104
aVnight_club
p105
aVpoint_of_interest
p106
as.