(dp0
Vgeometry
p1
(dp2
Vlocation
p3
(dp4
Vlat
p5
F40.68674
sVlng
p6
F-73.9835497
ssVviewport
p7
(dp8
Vnortheast
p9
(dp10
Vlat
p11
F40.6880889802915
sVlng
p12
F-73.9822007197085
ssVsouthwest
p13
(dp14
Vlat
p15
F40.6853910197085
sVlng
p16
F-73.98489868029151
sssVlocation_type
p17
VROOFTOP
p18
ssVaddress_components
p19
(lp20
(dp21
Vlong_name
p22
V#4C
p23
sVtypes
p24
(lp25
Vsubpremise
p26
asVshort_name
p27
V#4C
p28
sa(dp29
Vlong_name
p30
V423
p31
sVtypes
p32
(lp33
Vstreet_number
p34
asVshort_name
p35
V423
p36
sa(dp37
Vlong_name
p38
VAtlantic Avenue
p39
sVtypes
p40
(lp41
Vroute
p42
asVshort_name
p43
VAtlantic Ave
p44
sa(dp45
Vlong_name
p46
VBoerum Hill
p47
sVtypes
p48
(lp49
Vneighborhood
p50
aVpolitical
p51
asVshort_name
p52
VBoerum Hill
p53
sa(dp54
Vlong_name
p55
VBrooklyn
p56
sVtypes
p57
(lp58
Vpolitical
p59
aVsublocality
p60
aVsublocality_level_1
p61
asVshort_name
p62
VBrooklyn
p63
sa(dp64
Vlong_name
p65
VKings County
p66
sVtypes
p67
(lp68
Vadministrative_area_level_2
p69
aVpolitical
p70
asVshort_name
p71
VKings County
p72
sa(dp73
Vlong_name
p74
VNew York
p75
sVtypes
p76
(lp77
Vadministrative_area_level_1
p78
aVpolitical
p79
asVshort_name
p80
VNY
p81
sa(dp82
Vlong_name
p83
VUnited States
p84
sVtypes
p85
(lp86
Vcountry
p87
aVpolitical
p88
asVshort_name
p89
VUS
p90
sa(dp91
Vlong_name
p92
V11217
p93
sVtypes
p94
(lp95
Vpostal_code
p96
asVshort_name
p97
V11217
p98
sasVplace_id
p99
VChIJrSRVTk1awokRQd9hWFmt64Q
p100
sVformatted_address
p101
V423 Atlantic Ave #4C, Brooklyn, NY 11217, USA
p102
sVtypes
p103
(lp104
Vestablishment
p105
aVpoint_of_interest
p106
as.