(dp0
Vgeometry
p1
(dp2
Vlocation
p3
(dp4
Vlat
p5
F37.840228
sVlng
p6
F-122.287078
ssVviewport
p7
(dp8
Vnortheast
p9
(dp10
Vlat
p11
F37.8415769802915
sVlng
p12
F-122.2857290197085
ssVsouthwest
p13
(dp14
Vlat
p15
F37.8388790197085
sVlng
p16
F-122.2884269802915
sssVlocation_type
p17
VROOFTOP
p18
ssVaddress_components
p19
(lp20
(dp21
Vlong_name
p22
V1260
p23
sVtypes
p24
(lp25
Vstreet_number
p26
asVshort_name
p27
V1260
p28
sa(dp29
Vlong_name
p30
VPowell Street
p31
sVtypes
p32
(lp33
Vroute
p34
asVshort_name
p35
VPowell St
p36
sa(dp37
Vlong_name
p38
VEmeryville
p39
sVtypes
p40
(lp41
Vlocality
p42
aVpolitical
p43
asVshort_name
p44
VEmeryville
p45
sa(dp46
Vlong_name
p47
VAlameda County
p48
sVtypes
p49
(lp50
Vadministrative_area_level_2
p51
aVpolitical
p52
asVshort_name
p53
VAlameda County
p54
sa(dp55
Vlong_name
p56
VCalifornia
p57
sVtypes
p58
(lp59
Vadministrative_area_level_1
p60
aVpolitical
p61
asVshort_name
p62
VCA
p63
sa(dp64
Vlong_name
p65
VUnited States
p66
sVtypes
p67
(lp68
Vcountry
p69
aVpolitical
p70
asVshort_name
p71
VUS
p72
sa(dp73
Vlong_name
p74
V94608
p75
sVtypes
p76
(lp77
Vpostal_code
p78
asVshort_name
p79
V94608
p80
sasVplace_id
p81
VChIJJZVnC8x_j4ARdmir0dY2uRg
p82
sVformatted_address
p83
V1260 Powell St, Emeryville, CA 94608, USA
p84
sVtypes
p85
(lp86
Vestablishment
p87
aVpoint_of_interest
p88
as.