(dp0
Vgeometry
p1
(dp2
Vlocation
p3
(dp4
Vlat
p5
F33.642884
sVlng
p6
F-117.841308
ssVviewport
p7
(dp8
Vnortheast
p9
(dp10
Vlat
p11
F33.6442329802915
sVlng
p12
F-117.8399590197085
ssVsouthwest
p13
(dp14
Vlat
p15
F33.6415350197085
sVlng
p16
F-117.8426569802915
sssVlocation_type
p17
VROOFTOP
p18
ssVformatted_address
p19
VCalit2 Building, University of California Irvine, #4300, Irvine, CA 92617, USA
p20
sVplace_id
p21
VChIJ632Vig_e3IAR8IKL3KCpiRQ
p22
sVaddress_components
p23
(lp24
(dp25
Vlong_name
p26
V4300
p27
sVtypes
p28
(lp29
Vsubpremise
p30
asVshort_name
p31
V4300
p32
sa(dp33
Vlong_name
p34
VCalit2 Building
p35
sVtypes
p36
(lp37
Vpremise
p38
asVshort_name
p39
VCalit2 Building
p40
sa(dp41
Vlong_name
p42
VUniversity of California Irvine
p43
sVtypes
p44
(lp45
Vpremise
p46
asVshort_name
p47
VUniversity of California Irvine
p48
sa(dp49
Vlong_name
p50
VIrvine
p51
sVtypes
p52
(lp53
Vlocality
p54
aVpolitical
p55
asVshort_name
p56
VIrvine
p57
sa(dp58
Vlong_name
p59
VOrange County
p60
sVtypes
p61
(lp62
Vadministrative_area_level_2
p63
aVpolitical
p64
asVshort_name
p65
VOrange County
p66
sa(dp67
Vlong_name
p68
VCalifornia
p69
sVtypes
p70
(lp71
Vadministrative_area_level_1
p72
aVpolitical
p73
asVshort_name
p74
VCA
p75
sa(dp76
Vlong_name
p77
VUnited States
p78
sVtypes
p79
(lp80
Vcountry
p81
aVpolitical
p82
asVshort_name
p83
VUS
p84
sa(dp85
Vlong_name
p86
V92617
p87
sVtypes
p88
(lp89
Vpostal_code
p90
asVshort_name
p91
V92617
p92
sasVpartial_match
p93
I01
sVtypes
p94
(lp95
Vestablishment
p96
aVpoint_of_interest
p97
as.