(dp0
Vgeometry
p1
(dp2
Vlocation_type
p3
VAPPROXIMATE
p4
sVbounds
p5
(dp6
Vnortheast
p7
(dp8
Vlat
p9
F42.356433
sVlng
p10
F-82.89094
ssVsouthwest
p11
(dp12
Vlat
p13
F42.233569
sVlng
p14
F-83.114824
sssVviewport
p15
(dp16
Vnortheast
p17
(dp18
Vlat
p19
F42.356433
sVlng
p20
F-82.89094
ssVsouthwest
p21
(dp22
Vlat
p23
F42.233569
sVlng
p24
F-83.114824
sssVlocation
p25
(dp26
Vlat
p27
F42.3149367
sVlng
p28
F-83.03636329999999
sssVformatted_address
p29
VWindsor, ON, Canada
p30
sVplace_id
p31
VChIJa4hPtcEqO4gRUdz8J5XUbLY
p32
sVaddress_components
p33
(lp34
(dp35
Vlong_name
p36
VWindsor
p37
sVtypes
p38
(lp39
Vlocality
p40
aVpolitical
p41
asVshort_name
p42
VWindsor
p43
sa(dp44
Vlong_name
p45
VEssex County
p46
sVtypes
p47
(lp48
Vadministrative_area_level_2
p49
aVpolitical
p50
asVshort_name
p51
VEssex County
p52
sa(dp53
Vlong_name
p54
VOntario
p55
sVtypes
p56
(lp57
Vadministrative_area_level_1
p58
aVpolitical
p59
asVshort_name
p60
VON
p61
sa(dp62
Vlong_name
p63
VCanada
p64
sVtypes
p65
(lp66
Vcountry
p67
aVpolitical
p68
asVshort_name
p69
VCA
p70
sasVpartial_match
p71
I01
sVtypes
p72
(lp73
Vlocality
p74
aVpolitical
p75
as.