(dp0
Vgeometry
p1
(dp2
Vlocation
p3
(dp4
Vlat
p5
F40.724808
sVlng
p6
F-74.006225
ssVviewport
p7
(dp8
Vnortheast
p9
(dp10
Vlat
p11
F40.72615698029149
sVlng
p12
F-74.00487601970849
ssVsouthwest
p13
(dp14
Vlat
p15
F40.7234590197085
sVlng
p16
F-74.00757398029151
sssVlocation_type
p17
VROOFTOP
p18
ssVaddress_components
p19
(lp20
(dp21
Vlong_name
p22
V121
p23
sVtypes
p24
(lp25
Vstreet_number
p26
asVshort_name
p27
V121
p28
sa(dp29
Vlong_name
p30
VVarick Street
p31
sVtypes
p32
(lp33
Vroute
p34
asVshort_name
p35
VVarick St
p36
sa(dp37
Vlong_name
p38
VNew York
p39
sVtypes
p40
(lp41
Vlocality
p42
aVpolitical
p43
asVshort_name
p44
VNew York
p45
sa(dp46
Vlong_name
p47
VNew York
p48
sVtypes
p49
(lp50
Vadministrative_area_level_1
p51
aVpolitical
p52
asVshort_name
p53
VNY
p54
sa(dp55
Vlong_name
p56
VUnited States
p57
sVtypes
p58
(lp59
Vcountry
p60
aVpolitical
p61
asVshort_name
p62
VUS
p63
sa(dp64
Vlong_name
p65
V10013
p66
sVtypes
p67
(lp68
Vpostal_code
p69
asVshort_name
p70
V10013
p71
sasVplace_id
p72
VChIJpaKPtoxZwokR881HvWbeBQo
p73
sVformatted_address
p74
V4th Fl, 121 Varick St, New York, NY 10013, United States
p75
sVtypes
p76
(lp77
Vestablishment
p78
aVpoint_of_interest
p79
as.