(dp0
Vgeometry
p1
(dp2
Vlocation
p3
(dp4
Vlat
p5
F39.5770785
sVlng
p6
F2.6504199
ssVviewport
p7
(dp8
Vnortheast
p9
(dp10
Vlat
p11
F39.5784274802915
sVlng
p12
F2.651768880291502
ssVsouthwest
p13
(dp14
Vlat
p15
F39.5757295197085
sVlng
p16
F2.649070919708499
sssVlocation_type
p17
VROOFTOP
p18
ssVaddress_components
p19
(lp20
(dp21
Vlong_name
p22
V18
p23
sVtypes
p24
(lp25
Vstreet_number
p26
asVshort_name
p27
V18
p28
sa(dp29
Vlong_name
p30
VCarrer de Font i Monteros
p31
sVtypes
p32
(lp33
Vroute
p34
asVshort_name
p35
VCarrer de Font i Monteros
p36
sa(dp37
Vlong_name
p38
VPalma
p39
sVtypes
p40
(lp41
Vlocality
p42
aVpolitical
p43
asVshort_name
p44
VPalma
p45
sa(dp46
Vlong_name
p47
VIlles Balears
p48
sVtypes
p49
(lp50
Vadministrative_area_level_2
p51
aVpolitical
p52
asVshort_name
p53
VIlles Balears
p54
sa(dp55
Vlong_name
p56
VIlles Balears
p57
sVtypes
p58
(lp59
Vadministrative_area_level_1
p60
aVpolitical
p61
asVshort_name
p62
VPM
p63
sa(dp64
Vlong_name
p65
VSpain
p66
sVtypes
p67
(lp68
Vcountry
p69
aVpolitical
p70
asVshort_name
p71
VES
p72
sa(dp73
Vlong_name
p74
V07003
p75
sVtypes
p76
(lp77
Vpostal_code
p78
asVshort_name
p79
V07003
p80
sasVplace_id
p81
VChIJPeXgEVeSlxIRvA_WYNH9dAQ
p82
sVformatted_address
p83
VCarrer de Font i Monteros, 18, 07003 Palma, Illes Balears, Spain
p84
sVtypes
p85
(lp86
Vestablishment
p87
aVpoint_of_interest
p88
as.