(dp0
Vgeometry
p1
(dp2
Vlocation
p3
(dp4
Vlat
p5
F34.053126
sVlng
p6
F-118.264039
ssVviewport
p7
(dp8
Vnortheast
p9
(dp10
Vlat
p11
F34.0544749802915
sVlng
p12
F-118.2626900197085
ssVsouthwest
p13
(dp14
Vlat
p15
F34.0517770197085
sVlng
p16
F-118.2653879802915
sssVlocation_type
p17
VROOFTOP
p18
ssVaddress_components
p19
(lp20
(dp21
Vlong_name
p22
V310
p23
sVtypes
p24
(lp25
Vsubpremise
p26
asVshort_name
p27
V310
p28
sa(dp29
Vlong_name
p30
V1127
p31
sVtypes
p32
(lp33
Vstreet_number
p34
asVshort_name
p35
V1127
p36
sa(dp37
Vlong_name
p38
VWilshire Boulevard
p39
sVtypes
p40
(lp41
Vroute
p42
asVshort_name
p43
VWilshire Blvd
p44
sa(dp45
Vlong_name
p46
VCentral LA
p47
sVtypes
p48
(lp49
Vneighborhood
p50
aVpolitical
p51
asVshort_name
p52
VCentral LA
p53
sa(dp54
Vlong_name
p55
VLos Angeles
p56
sVtypes
p57
(lp58
Vlocality
p59
aVpolitical
p60
asVshort_name
p61
VLos Angeles
p62
sa(dp63
Vlong_name
p64
VLos Angeles County
p65
sVtypes
p66
(lp67
Vadministrative_area_level_2
p68
aVpolitical
p69
asVshort_name
p70
VLos Angeles County
p71
sa(dp72
Vlong_name
p73
VCalifornia
p74
sVtypes
p75
(lp76
Vadministrative_area_level_1
p77
aVpolitical
p78
asVshort_name
p79
VCA
p80
sa(dp81
Vlong_name
p82
VUnited States
p83
sVtypes
p84
(lp85
Vcountry
p86
aVpolitical
p87
asVshort_name
p88
VUS
p89
sa(dp90
Vlong_name
p91
V90017
p92
sVtypes
p93
(lp94
Vpostal_code
p95
asVshort_name
p96
V90017
p97
sasVplace_id
p98
VChIJk4dQX6XHwoARjYpeyW5368c
p99
sVformatted_address
p100
V1127 Wilshire Blvd #310, Los Angeles, CA 90017, USA
p101
sVtypes
p102
(lp103
Vestablishment
p104
aVhealth
p105
aVpoint_of_interest
p106
as.