(dp0
Vgeometry
p1
(dp2
Vlocation
p3
(dp4
Vlat
p5
F35.944365
sVlng
p6
F-86.80344300000002
ssVviewport
p7
(dp8
Vnortheast
p9
(dp10
Vlat
p11
F35.9457139802915
sVlng
p12
F-86.80209401970852
ssVsouthwest
p13
(dp14
Vlat
p15
F35.9430160197085
sVlng
p16
F-86.80479198029153
sssVlocation_type
p17
VROOFTOP
p18
ssVaddress_components
p19
(lp20
(dp21
Vlong_name
p22
V741
p23
sVtypes
p24
(lp25
Vstreet_number
p26
asVshort_name
p27
V741
p28
sa(dp29
Vlong_name
p30
VCool Springs Boulevard
p31
sVtypes
p32
(lp33
Vroute
p34
asVshort_name
p35
VCool Springs Blvd
p36
sa(dp37
Vlong_name
p38
VFranklin
p39
sVtypes
p40
(lp41
Vlocality
p42
aVpolitical
p43
asVshort_name
p44
VFranklin
p45
sa(dp46
Vlong_name
p47
VWilliamson County
p48
sVtypes
p49
(lp50
Vadministrative_area_level_2
p51
aVpolitical
p52
asVshort_name
p53
VWilliamson County
p54
sa(dp55
Vlong_name
p56
VTennessee
p57
sVtypes
p58
(lp59
Vadministrative_area_level_1
p60
aVpolitical
p61
asVshort_name
p62
VTN
p63
sa(dp64
Vlong_name
p65
VUnited States
p66
sVtypes
p67
(lp68
Vcountry
p69
aVpolitical
p70
asVshort_name
p71
VUS
p72
sa(dp73
Vlong_name
p74
V37067
p75
sVtypes
p76
(lp77
Vpostal_code
p78
asVshort_name
p79
V37067
p80
sasVplace_id
p81
VChIJR96UPEJ5ZIgR8EX5XrgqbT0
p82
sVformatted_address
p83
V741 Cool Springs Blvd, Franklin, TN 37067, USA
p84
sVtypes
p85
(lp86
Vestablishment
p87
aVpoint_of_interest
p88
as.