(dp0
Vgeometry
p1
(dp2
Vlocation_type
p3
VAPPROXIMATE
p4
sVbounds
p5
(dp6
Vnortheast
p7
(dp8
Vlat
p9
F50.8572332
sVlng
p10
F6.2181501
ssVsouthwest
p11
(dp12
Vlat
p13
F50.6621268
sVlng
p14
F5.974899199999999
sssVviewport
p15
(dp16
Vnortheast
p17
(dp18
Vlat
p19
F50.8572332
sVlng
p20
F6.2181501
ssVsouthwest
p21
(dp22
Vlat
p23
F50.6621268
sVlng
p24
F5.974899199999999
sssVlocation
p25
(dp26
Vlat
p27
F50.7753455
sVlng
p28
F6.083886800000001
sssVformatted_address
p29
VAachen, Germany
p30
sVplace_id
p31
VChIJHRmKsHyZwEcRT0QOC64Oo2M
p32
sVaddress_components
p33
(lp34
(dp35
Vlong_name
p36
VAachen
p37
sVtypes
p38
(lp39
Vlocality
p40
aVpolitical
p41
asVshort_name
p42
VAC
p43
sa(dp44
Vlong_name
p45
VAachen
p46
sVtypes
p47
(lp48
Vadministrative_area_level_3
p49
aVpolitical
p50
asVshort_name
p51
VAC
p52
sa(dp53
Vlong_name
p54
VCologne
p55
sVtypes
p56
(lp57
Vadministrative_area_level_2
p58
aVpolitical
p59
asVshort_name
p60
VK
p61
sa(dp62
Vlong_name
p63
VNorth Rhine-Westphalia
p64
sVtypes
p65
(lp66
Vadministrative_area_level_1
p67
aVpolitical
p68
asVshort_name
p69
VNRW
p70
sa(dp71
Vlong_name
p72
VGermany
p73
sVtypes
p74
(lp75
Vcountry
p76
aVpolitical
p77
asVshort_name
p78
VDE
p79
sasVpartial_match
p80
I01
sVtypes
p81
(lp82
Vlocality
p83
aVpolitical
p84
as.