(dp0
Vgeometry
p1
(dp2
Vlocation
p3
(dp4
Vlat
p5
F41.9403795
sVlng
p6
F-87.65318049999999
ssVviewport
p7
(dp8
Vnortheast
p9
(dp10
Vlat
p11
F41.94172848029149
sVlng
p12
F-87.65183151970848
ssVsouthwest
p13
(dp14
Vlat
p15
F41.9390305197085
sVlng
p16
F-87.65452948029149
sssVlocation_type
p17
VGEOMETRIC_CENTER
p18
ssVaddress_components
p19
(lp20
(dp21
Vlong_name
p22
VChicago
p23
sVtypes
p24
(lp25
Vlocality
p26
aVpolitical
p27
asVshort_name
p28
VChicago
p29
sa(dp30
Vlong_name
p31
VLake View
p32
sVtypes
p33
(lp34
Vneighborhood
p35
aVpolitical
p36
asVshort_name
p37
VLake View
p38
sa(dp39
Vlong_name
p40
VCook County
p41
sVtypes
p42
(lp43
Vadministrative_area_level_2
p44
aVpolitical
p45
asVshort_name
p46
VCook County
p47
sa(dp48
Vlong_name
p49
VIllinois
p50
sVtypes
p51
(lp52
Vadministrative_area_level_1
p53
aVpolitical
p54
asVshort_name
p55
VIL
p56
sa(dp57
Vlong_name
p58
VUnited States
p59
sVtypes
p60
(lp61
Vcountry
p62
aVpolitical
p63
asVshort_name
p64
VUS
p65
sa(dp66
Vlong_name
p67
V60657
p68
sVtypes
p69
(lp70
Vpostal_code
p71
asVshort_name
p72
V60657
p73
sasVplace_id
p74
VChIJ_____6vTD4gRyIn3bZ_FaD4
p75
sVformatted_address
p76
VChicago, IL 60657, USA
p77
sVtypes
p78
(lp79
Velectronics_store
p80
aVestablishment
p81
aVhome_goods_store
p82
aVpoint_of_interest
p83
aVstore
p84
as.