(dp0
Vgeometry
p1
(dp2
Vlocation
p3
(dp4
Vlat
p5
F34.1815906
sVlng
p6
F-118.3083786
ssVviewport
p7
(dp8
Vnortheast
p9
(dp10
Vlat
p11
F34.1829395802915
sVlng
p12
F-118.3070296197085
ssVsouthwest
p13
(dp14
Vlat
p15
F34.1802416197085
sVlng
p16
F-118.3097275802915
sssVlocation_type
p17
VROOFTOP
p18
ssVaddress_components
p19
(lp20
(dp21
Vlong_name
p22
VSte. 300
p23
sVtypes
p24
(lp25
Vsubpremise
p26
asVshort_name
p27
VSte. 300
p28
sa(dp29
Vlong_name
p30
V245
p31
sVtypes
p32
(lp33
Vstreet_number
p34
asVshort_name
p35
V245
p36
sa(dp37
Vlong_name
p38
VEast Olive Avenue
p39
sVtypes
p40
(lp41
Vroute
p42
asVshort_name
p43
VE Olive Ave
p44
sa(dp45
Vlong_name
p46
VBurbank
p47
sVtypes
p48
(lp49
Vlocality
p50
aVpolitical
p51
asVshort_name
p52
VBurbank
p53
sa(dp54
Vlong_name
p55
VLos Angeles County
p56
sVtypes
p57
(lp58
Vadministrative_area_level_2
p59
aVpolitical
p60
asVshort_name
p61
VLos Angeles County
p62
sa(dp63
Vlong_name
p64
VCalifornia
p65
sVtypes
p66
(lp67
Vadministrative_area_level_1
p68
aVpolitical
p69
asVshort_name
p70
VCA
p71
sa(dp72
Vlong_name
p73
VUnited States
p74
sVtypes
p75
(lp76
Vcountry
p77
aVpolitical
p78
asVshort_name
p79
VUS
p80
sa(dp81
Vlong_name
p82
V91502
p83
sVtypes
p84
(lp85
Vpostal_code
p86
asVshort_name
p87
V91502
p88
sasVplace_id
p89
VChIJDdvf4lCVwoARGURNLYdtqQ0
p90
sVformatted_address
p91
V245 E Olive Ave Ste. 300, Burbank, CA 91502, USA
p92
sVtypes
p93
(lp94
Vestablishment
p95
aVpoint_of_interest
p96
as.