(dp0
Vgeometry
p1
(dp2
Vlocation
p3
(dp4
Vlat
p5
F42.0126473
sVlng
p6
F-73.8757674
ssVviewport
p7
(dp8
Vnortheast
p9
(dp10
Vlat
p11
F42.01399628029149
sVlng
p12
F-73.8744184197085
ssVsouthwest
p13
(dp14
Vlat
p15
F42.0112983197085
sVlng
p16
F-73.87711638029151
sssVlocation_type
p17
VRANGE_INTERPOLATED
p18
ssVformatted_address
p19
V45 Apple Ring Rd, Red Hook, NY 12571, USA
p20
sVplace_id
p21
VEik0NSBBcHBsZSBSaW5nIFJkLCBSZWQgSG9vaywgTlkgMTI1NzEsIFVTQSIaEhgKFAoSCRcpWH2SCt2JEawUTKgJvGQ5EC0
p22
sVaddress_components
p23
(lp24
(dp25
Vlong_name
p26
V45
p27
sVtypes
p28
(lp29
Vstreet_number
p30
asVshort_name
p31
V45
p32
sa(dp33
Vlong_name
p34
VApple Ring Road
p35
sVtypes
p36
(lp37
Vroute
p38
asVshort_name
p39
VApple Ring Rd
p40
sa(dp41
Vlong_name
p42
VRed Hook
p43
sVtypes
p44
(lp45
Vlocality
p46
aVpolitical
p47
asVshort_name
p48
VRed Hook
p49
sa(dp50
Vlong_name
p51
VRed Hook
p52
sVtypes
p53
(lp54
Vadministrative_area_level_3
p55
aVpolitical
p56
asVshort_name
p57
VRed Hook
p58
sa(dp59
Vlong_name
p60
VDutchess County
p61
sVtypes
p62
(lp63
Vadministrative_area_level_2
p64
aVpolitical
p65
asVshort_name
p66
VDutchess County
p67
sa(dp68
Vlong_name
p69
VNew York
p70
sVtypes
p71
(lp72
Vadministrative_area_level_1
p73
aVpolitical
p74
asVshort_name
p75
VNY
p76
sa(dp77
Vlong_name
p78
VUnited States
p79
sVtypes
p80
(lp81
Vcountry
p82
aVpolitical
p83
asVshort_name
p84
VUS
p85
sa(dp86
Vlong_name
p87
V12571
p88
sVtypes
p89
(lp90
Vpostal_code
p91
asVshort_name
p92
V12571
p93
sasVpartial_match
p94
I01
sVtypes
p95
(lp96
Vstreet_address
p97
as.