(dp0
Vgeometry
p1
(dp2
Vlocation_type
p3
VAPPROXIMATE
p4
sVbounds
p5
(dp6
Vnortheast
p7
(dp8
Vlat
p9
F52.0778176
sVlng
p10
F5.9901518
ssVsouthwest
p11
(dp12
Vlat
p13
F51.9334141
sVlng
p14
F5.8030456
sssVviewport
p15
(dp16
Vnortheast
p17
(dp18
Vlat
p19
F52.0778176
sVlng
p20
F5.9901518
ssVsouthwest
p21
(dp22
Vlat
p23
F51.9334141
sVlng
p24
F5.8030456
sssVlocation
p25
(dp26
Vlat
p27
F51.9851034
sVlng
p28
F5.898729599999999
sssVformatted_address
p29
VArnhem, Netherlands
p30
sVplace_id
p31
VChIJcyKbzpG6x0cR18pz-eBaHBY
p32
sVaddress_components
p33
(lp34
(dp35
Vlong_name
p36
VArnhem
p37
sVtypes
p38
(lp39
Vlocality
p40
aVpolitical
p41
asVshort_name
p42
VArnhem
p43
sa(dp44
Vlong_name
p45
VArnhem
p46
sVtypes
p47
(lp48
Vadministrative_area_level_2
p49
aVpolitical
p50
asVshort_name
p51
VArnhem
p52
sa(dp53
Vlong_name
p54
VGelderland
p55
sVtypes
p56
(lp57
Vadministrative_area_level_1
p58
aVpolitical
p59
asVshort_name
p60
VGE
p61
sa(dp62
Vlong_name
p63
VNetherlands
p64
sVtypes
p65
(lp66
Vcountry
p67
aVpolitical
p68
asVshort_name
p69
VNL
p70
sasVpartial_match
p71
I01
sVtypes
p72
(lp73
Vlocality
p74
aVpolitical
p75
as.