(dp0
Vgeometry
p1
(dp2
Vlocation
p3
(dp4
Vlat
p5
F39.318741
sVlng
p6
F-76.61950999999999
ssVviewport
p7
(dp8
Vnortheast
p9
(dp10
Vlat
p11
F39.32008998029151
sVlng
p12
F-76.61816101970848
ssVsouthwest
p13
(dp14
Vlat
p15
F39.31739201970851
sVlng
p16
F-76.62085898029149
sssVlocation_type
p17
VROOFTOP
p18
ssVaddress_components
p19
(lp20
(dp21
Vlong_name
p22
V2545
p23
sVtypes
p24
(lp25
Vstreet_number
p26
asVshort_name
p27
V2545
p28
sa(dp29
Vlong_name
p30
VNorth Howard Street
p31
sVtypes
p32
(lp33
Vroute
p34
asVshort_name
p35
VN Howard St
p36
sa(dp37
Vlong_name
p38
VCharles Village
p39
sVtypes
p40
(lp41
Vneighborhood
p42
aVpolitical
p43
asVshort_name
p44
VCharles Village
p45
sa(dp46
Vlong_name
p47
VBaltimore
p48
sVtypes
p49
(lp50
Vlocality
p51
aVpolitical
p52
asVshort_name
p53
VBaltimore
p54
sa(dp55
Vlong_name
p56
VMaryland
p57
sVtypes
p58
(lp59
Vadministrative_area_level_1
p60
aVpolitical
p61
asVshort_name
p62
VMD
p63
sa(dp64
Vlong_name
p65
VUnited States
p66
sVtypes
p67
(lp68
Vcountry
p69
aVpolitical
p70
asVshort_name
p71
VUS
p72
sa(dp73
Vlong_name
p74
V21218
p75
sVtypes
p76
(lp77
Vpostal_code
p78
asVshort_name
p79
V21218
p80
sa(dp81
Vlong_name
p82
V4506
p83
sVtypes
p84
(lp85
Vpostal_code_suffix
p86
asVshort_name
p87
V4506
p88
sasVplace_id
p89
VChIJgWXoycIEyIkRwuoeVUBMwxQ
p90
sVformatted_address
p91
V2545 N Howard St, Baltimore, MD 21218, USA
p92
sVtypes
p93
(lp94
Vclothing_store
p95
aVestablishment
p96
aVpoint_of_interest
p97
aVstore
p98
as.