(dp0
Vgeometry
p1
(dp2
Vlocation
p3
(dp4
Vlat
p5
F50.820806
sVlng
p6
F-0.1430348
ssVviewport
p7
(dp8
Vnortheast
p9
(dp10
Vlat
p11
F50.8221549802915
sVlng
p12
F-0.141685819708498
ssVsouthwest
p13
(dp14
Vlat
p15
F50.8194570197085
sVlng
p16
F-0.144383780291502
sssVlocation_type
p17
VROOFTOP
p18
ssVaddress_components
p19
(lp20
(dp21
Vlong_name
p22
V73A
p23
sVtypes
p24
(lp25
Vstreet_number
p26
asVshort_name
p27
V73A
p28
sa(dp29
Vlong_name
p30
VMiddle Street
p31
sVtypes
p32
(lp33
Vroute
p34
asVshort_name
p35
VMiddle St
p36
sa(dp37
Vlong_name
p38
VBrighton
p39
sVtypes
p40
(lp41
Vpostal_town
p42
asVshort_name
p43
VBrighton
p44
sa(dp45
Vlong_name
p46
VThe City of Brighton and Hove
p47
sVtypes
p48
(lp49
Vadministrative_area_level_2
p50
aVpolitical
p51
asVshort_name
p52
VThe City of Brighton and Hove
p53
sa(dp54
Vlong_name
p55
VEngland
p56
sVtypes
p57
(lp58
Vadministrative_area_level_1
p59
aVpolitical
p60
asVshort_name
p61
VEngland
p62
sa(dp63
Vlong_name
p64
VUnited Kingdom
p65
sVtypes
p66
(lp67
Vcountry
p68
aVpolitical
p69
asVshort_name
p70
VGB
p71
sa(dp72
Vlong_name
p73
VBN1 1AL
p74
sVtypes
p75
(lp76
Vpostal_code
p77
asVshort_name
p78
VBN1 1AL
p79
sasVplace_id
p80
VChIJfbDYdwyFdUgRabUAsySjSyQ
p81
sVformatted_address
p82
V73A Middle St, Brighton BN1 1AL, UK
p83
sVtypes
p84
(lp85
Vestablishment
p86
aVpoint_of_interest
p87
as.