(dp0
Vgeometry
p1
(dp2
Vlocation_type
p3
VAPPROXIMATE
p4
sVbounds
p5
(dp6
Vnortheast
p7
(dp8
Vlat
p9
F-26.1041199
sVlng
p10
F28.1376001
ssVsouthwest
p11
(dp12
Vlat
p13
F-26.2389231
sVlng
p14
F27.942449
sssVviewport
p15
(dp16
Vnortheast
p17
(dp18
Vlat
p19
F-26.1041199
sVlng
p20
F28.1376001
ssVsouthwest
p21
(dp22
Vlat
p23
F-26.2389231
sVlng
p24
F27.942449
sssVlocation
p25
(dp26
Vlat
p27
F-26.2041028
sVlng
p28
F28.0473051
sssVformatted_address
p29
VJohannesburg, South Africa
p30
sVplace_id
p31
VChIJUWpA8GgMlR4RQUDTsdnJiiM
p32
sVaddress_components
p33
(lp34
(dp35
Vlong_name
p36
VJohannesburg
p37
sVtypes
p38
(lp39
Vlocality
p40
aVpolitical
p41
asVshort_name
p42
VJohannesburg
p43
sa(dp44
Vlong_name
p45
VCity of Johannesburg Metropolitan Municipality
p46
sVtypes
p47
(lp48
Vadministrative_area_level_2
p49
aVpolitical
p50
asVshort_name
p51
VCity of Johannesburg Metropolitan Municipality
p52
sa(dp53
Vlong_name
p54
VGauteng
p55
sVtypes
p56
(lp57
Vadministrative_area_level_1
p58
aVpolitical
p59
asVshort_name
p60
VGP
p61
sa(dp62
Vlong_name
p63
VSouth Africa
p64
sVtypes
p65
(lp66
Vcountry
p67
aVpolitical
p68
asVshort_name
p69
VZA
p70
sasVpartial_match
p71
I01
sVtypes
p72
(lp73
Vlocality
p74
aVpolitical
p75
as.