(dp0
Vgeometry
p1
(dp2
Vlocation
p3
(dp4
Vlat
p5
F49.050255
sVlng
p6
F-123.802583
ssVviewport
p7
(dp8
Vnortheast
p9
(dp10
Vlat
p11
F49.0516039802915
sVlng
p12
F-123.8012340197085
ssVsouthwest
p13
(dp14
Vlat
p15
F49.0489060197085
sVlng
p16
F-123.8039319802915
sssVlocation_type
p17
VROOFTOP
p18
ssVaddress_components
p19
(lp20
(dp21
Vlong_name
p22
V13650
p23
sVtypes
p24
(lp25
Vstreet_number
p26
asVshort_name
p27
V13650
p28
sa(dp29
Vlong_name
p30
VLong Lake Road
p31
sVtypes
p32
(lp33
Vroute
p34
asVshort_name
p35
VLong Lake Rd
p36
sa(dp37
Vlong_name
p38
VLadysmith
p39
sVtypes
p40
(lp41
Vlocality
p42
aVpolitical
p43
asVshort_name
p44
VLadysmith
p45
sa(dp46
Vlong_name
p47
VCowichan Valley H
p48
sVtypes
p49
(lp50
Vadministrative_area_level_3
p51
aVpolitical
p52
asVshort_name
p53
VCowichan Valley H
p54
sa(dp55
Vlong_name
p56
VCowichan Valley
p57
sVtypes
p58
(lp59
Vadministrative_area_level_2
p60
aVpolitical
p61
asVshort_name
p62
VCowichan Valley
p63
sa(dp64
Vlong_name
p65
VBritish Columbia
p66
sVtypes
p67
(lp68
Vadministrative_area_level_1
p69
aVpolitical
p70
asVshort_name
p71
VBC
p72
sa(dp73
Vlong_name
p74
VCanada
p75
sVtypes
p76
(lp77
Vcountry
p78
aVpolitical
p79
asVshort_name
p80
VCA
p81
sa(dp82
Vlong_name
p83
VV9G 1G4
p84
sVtypes
p85
(lp86
Vpostal_code
p87
asVshort_name
p88
VV9G 1G4
p89
sasVplace_id
p90
VChIJx5ePDNCuiFQRhv7hCIHrCEE
p91
sVformatted_address
p92
V13650 Long Lake Rd, Ladysmith, BC V9G 1G4, Canada
p93
sVtypes
p94
(lp95
Velectronics_store
p96
aVestablishment
p97
aVhome_goods_store
p98
aVpoint_of_interest
p99
aVstore
p100
as.