(dp0
Vgeometry
p1
(dp2
Vlocation
p3
(dp4
Vlat
p5
F40.7205029
sVlng
p6
F-73.9996881
ssVviewport
p7
(dp8
Vnortheast
p9
(dp10
Vlat
p11
F40.7218518802915
sVlng
p12
F-73.99833911970849
ssVsouthwest
p13
(dp14
Vlat
p15
F40.7191539197085
sVlng
p16
F-74.00103708029151
sssVlocation_type
p17
VROOFTOP
p18
ssVaddress_components
p19
(lp20
(dp21
Vlong_name
p22
V134
p23
sVtypes
p24
(lp25
Vstreet_number
p26
asVshort_name
p27
V134
p28
sa(dp29
Vlong_name
p30
VGrand Street
p31
sVtypes
p32
(lp33
Vroute
p34
asVshort_name
p35
VGrand St
p36
sa(dp37
Vlong_name
p38
VNew York
p39
sVtypes
p40
(lp41
Vlocality
p42
aVpolitical
p43
asVshort_name
p44
VNew York
p45
sa(dp46
Vlong_name
p47
VNew York
p48
sVtypes
p49
(lp50
Vadministrative_area_level_1
p51
aVpolitical
p52
asVshort_name
p53
VNY
p54
sa(dp55
Vlong_name
p56
VUnited States
p57
sVtypes
p58
(lp59
Vcountry
p60
aVpolitical
p61
asVshort_name
p62
VUS
p63
sa(dp64
Vlong_name
p65
V10013
p66
sVtypes
p67
(lp68
Vpostal_code
p69
asVshort_name
p70
V10013
p71
sa(dp72
Vlong_name
p73
V3104
p74
sVtypes
p75
(lp76
Vpostal_code_suffix
p77
asVshort_name
p78
V3104
p79
sasVplace_id
p80
VChIJ_QBuvI9ZwokReeUkqvQsx50
p81
sVformatted_address
p82
V3104, 134 Grand St, New York, NY 10013, United States
p83
sVtypes
p84
(lp85
Vestablishment
p86
aVpoint_of_interest
p87
as.