(dp0
Vgeometry
p1
(dp2
Vlocation_type
p3
VAPPROXIMATE
p4
sVbounds
p5
(dp6
Vnortheast
p7
(dp8
Vlat
p9
F-37.6792029
sVlng
p10
F145.1346021
ssVsouthwest
p11
(dp12
Vlat
p13
F-37.7203323
sVlng
p14
F145.0678388
sssVviewport
p15
(dp16
Vnortheast
p17
(dp18
Vlat
p19
F-37.6792029
sVlng
p20
F145.1346021
ssVsouthwest
p21
(dp22
Vlat
p23
F-37.7203323
sVlng
p24
F145.0678388
sssVlocation
p25
(dp26
Vlat
p27
F-37.686
sVlng
p28
F145.117
sssVformatted_address
p29
VGreensborough VIC 3088, Australia
p30
sVplace_id
p31
VChIJ99xa6kJI1moRUNGMIXVWBAU
p32
sVaddress_components
p33
(lp34
(dp35
Vlong_name
p36
VGreensborough
p37
sVtypes
p38
(lp39
Vlocality
p40
aVpolitical
p41
asVshort_name
p42
VGreensborough
p43
sa(dp44
Vlong_name
p45
VVictoria
p46
sVtypes
p47
(lp48
Vadministrative_area_level_1
p49
aVpolitical
p50
asVshort_name
p51
VVIC
p52
sa(dp53
Vlong_name
p54
VAustralia
p55
sVtypes
p56
(lp57
Vcountry
p58
aVpolitical
p59
asVshort_name
p60
VAU
p61
sa(dp62
Vlong_name
p63
V3088
p64
sVtypes
p65
(lp66
Vpostal_code
p67
asVshort_name
p68
V3088
p69
sasVpartial_match
p70
I01
sVtypes
p71
(lp72
Vlocality
p73
aVpolitical
p74
as.