(dp0
Vgeometry
p1
(dp2
Vlocation
p3
(dp4
Vlat
p5
F34.7699362
sVlng
p6
F-87.7069331
ssVviewport
p7
(dp8
Vnortheast
p9
(dp10
Vlat
p11
F34.77128518029149
sVlng
p12
F-87.70558411970849
ssVsouthwest
p13
(dp14
Vlat
p15
F34.7685872197085
sVlng
p16
F-87.7082820802915
sssVlocation_type
p17
VROOFTOP
p18
ssVaddress_components
p19
(lp20
(dp21
Vlong_name
p22
V1000
p23
sVtypes
p24
(lp25
Vstreet_number
p26
asVshort_name
p27
V1000
p28
sa(dp29
Vlong_name
p30
VAlabama Avenue
p31
sVtypes
p32
(lp33
Vroute
p34
asVshort_name
p35
VAlabama Ave
p36
sa(dp37
Vlong_name
p38
VSheffield
p39
sVtypes
p40
(lp41
Vlocality
p42
aVpolitical
p43
asVshort_name
p44
VSheffield
p45
sa(dp46
Vlong_name
p47
VColbert County
p48
sVtypes
p49
(lp50
Vadministrative_area_level_2
p51
aVpolitical
p52
asVshort_name
p53
VColbert County
p54
sa(dp55
Vlong_name
p56
VAlabama
p57
sVtypes
p58
(lp59
Vadministrative_area_level_1
p60
aVpolitical
p61
asVshort_name
p62
VAL
p63
sa(dp64
Vlong_name
p65
VUnited States
p66
sVtypes
p67
(lp68
Vcountry
p69
aVpolitical
p70
asVshort_name
p71
VUS
p72
sa(dp73
Vlong_name
p74
V35660
p75
sVtypes
p76
(lp77
Vpostal_code
p78
asVshort_name
p79
V35660
p80
sa(dp81
Vlong_name
p82
V7316
p83
sVtypes
p84
(lp85
Vpostal_code_suffix
p86
asVshort_name
p87
V7316
p88
sasVplace_id
p89
VChIJx2g86xtGfYgRrLogi7RTdoI
p90
sVformatted_address
p91
V1000 Alabama Ave, Sheffield, AL 35660, USA
p92
sVtypes
p93
(lp94
Vestablishment
p95
aVpoint_of_interest
p96
as.