(dp0
Vgeometry
p1
(dp2
Vlocation
p3
(dp4
Vlat
p5
F40.4701668
sVlng
p6
F-3.6654398
ssVviewport
p7
(dp8
Vnortheast
p9
(dp10
Vlat
p11
F40.4715157802915
sVlng
p12
F-3.664090819708497
ssVsouthwest
p13
(dp14
Vlat
p15
F40.46881781970851
sVlng
p16
F-3.666788780291502
sssVlocation_type
p17
VROOFTOP
p18
ssVaddress_components
p19
(lp20
(dp21
Vlong_name
p22
V3
p23
sVtypes
p24
(lp25
Vstreet_number
p26
asVshort_name
p27
g23
sa(dp28
Vlong_name
p29
VCalle de Alonso Saavedra
p30
sVtypes
p31
(lp32
Vroute
p33
asVshort_name
p34
VCalle de Alonso Saavedra
p35
sa(dp36
Vlong_name
p37
VMadrid
p38
sVtypes
p39
(lp40
Vlocality
p41
aVpolitical
p42
asVshort_name
p43
VMadrid
p44
sa(dp45
Vlong_name
p46
VMadrid
p47
sVtypes
p48
(lp49
Vadministrative_area_level_2
p50
aVpolitical
p51
asVshort_name
p52
VM
p53
sa(dp54
Vlong_name
p55
VComunidad de Madrid
p56
sVtypes
p57
(lp58
Vadministrative_area_level_1
p59
aVpolitical
p60
asVshort_name
p61
VComunidad de Madrid
p62
sa(dp63
Vlong_name
p64
VSpain
p65
sVtypes
p66
(lp67
Vcountry
p68
aVpolitical
p69
asVshort_name
p70
VES
p71
sa(dp72
Vlong_name
p73
V28033
p74
sVtypes
p75
(lp76
Vpostal_code
p77
asVshort_name
p78
V28033
p79
sasVplace_id
p80
VChIJe672dzQpQg0RDX-ac1Y6dh4
p81
sVformatted_address
p82
VCalle de Alonso Saavedra, 3, 28033 Madrid, Spain
p83
sVtypes
p84
(lp85
Velectronics_store
p86
aVestablishment
p87
aVhome_goods_store
p88
aVpoint_of_interest
p89
aVstore
p90
as.