(dp0
Vgeometry
p1
(dp2
Vlocation
p3
(dp4
Vlat
p5
F43.6653976
sVlng
p6
F-79.4826264
ssVviewport
p7
(dp8
Vnortheast
p9
(dp10
Vlat
p11
F43.66674658029149
sVlng
p12
F-79.48127741970849
ssVsouthwest
p13
(dp14
Vlat
p15
F43.6640486197085
sVlng
p16
F-79.4839753802915
sssVlocation_type
p17
VROOFTOP
p18
ssVaddress_components
p19
(lp20
(dp21
Vlong_name
p22
V3365
p23
sVtypes
p24
(lp25
Vstreet_number
p26
asVshort_name
p27
V3365
p28
sa(dp29
Vlong_name
p30
VDundas Street West
p31
sVtypes
p32
(lp33
Vroute
p34
asVshort_name
p35
VDundas St W
p36
sa(dp37
Vlong_name
p38
VYork
p39
sVtypes
p40
(lp41
Vpolitical
p42
aVsublocality
p43
aVsublocality_level_1
p44
asVshort_name
p45
VYork
p46
sa(dp47
Vlong_name
p48
VToronto
p49
sVtypes
p50
(lp51
Vlocality
p52
aVpolitical
p53
asVshort_name
p54
VToronto
p55
sa(dp56
Vlong_name
p57
VToronto Division
p58
sVtypes
p59
(lp60
Vadministrative_area_level_2
p61
aVpolitical
p62
asVshort_name
p63
VToronto Division
p64
sa(dp65
Vlong_name
p66
VOntario
p67
sVtypes
p68
(lp69
Vadministrative_area_level_1
p70
aVpolitical
p71
asVshort_name
p72
VON
p73
sa(dp74
Vlong_name
p75
VCanada
p76
sVtypes
p77
(lp78
Vcountry
p79
aVpolitical
p80
asVshort_name
p81
VCA
p82
sa(dp83
Vlong_name
p84
VM6S 2R9
p85
sVtypes
p86
(lp87
Vpostal_code
p88
asVshort_name
p89
VM6S 2R9
p90
sasVplace_id
p91
VChIJBXRqdpc2K4gRontnwJ83L1s
p92
sVformatted_address
p93
V3365 Dundas St W, York, ON M6S 2R9, Canada
p94
sVtypes
p95
(lp96
Velectronics_store
p97
aVestablishment
p98
aVhome_goods_store
p99
aVpoint_of_interest
p100
aVstore
p101
as.