(dp0
Vgeometry
p1
(dp2
Vlocation
p3
(dp4
Vlat
p5
F50.8057214
sVlng
p6
F-1.9184655
ssVviewport
p7
(dp8
Vnortheast
p9
(dp10
Vlat
p11
F50.80707038029149
sVlng
p12
F-1.917116519708498
ssVsouthwest
p13
(dp14
Vlat
p15
F50.80437241970849
sVlng
p16
F-1.919814480291502
sssVlocation_type
p17
VROOFTOP
p18
ssVaddress_components
p19
(lp20
(dp21
Vlong_name
p22
V2
p23
sVtypes
p24
(lp25
Vstreet_number
p26
asVshort_name
p27
g23
sa(dp28
Vlong_name
p29
VOld Forge Road
p30
sVtypes
p31
(lp32
Vroute
p33
asVshort_name
p34
VOld Forge Rd
p35
sa(dp36
Vlong_name
p37
VWimborne
p38
sVtypes
p39
(lp40
Vpostal_town
p41
asVshort_name
p42
VWimborne
p43
sa(dp44
Vlong_name
p45
VDorset
p46
sVtypes
p47
(lp48
Vadministrative_area_level_2
p49
aVpolitical
p50
asVshort_name
p51
VDorset
p52
sa(dp53
Vlong_name
p54
VEngland
p55
sVtypes
p56
(lp57
Vadministrative_area_level_1
p58
aVpolitical
p59
asVshort_name
p60
VEngland
p61
sa(dp62
Vlong_name
p63
VUnited Kingdom
p64
sVtypes
p65
(lp66
Vcountry
p67
aVpolitical
p68
asVshort_name
p69
VGB
p70
sa(dp71
Vlong_name
p72
VBH21 7RR
p73
sVtypes
p74
(lp75
Vpostal_code
p76
asVshort_name
p77
VBH21 7RR
p78
sasVplace_id
p79
VChIJG6ztxB6jc0gR1NMs1U52eUY
p80
sVformatted_address
p81
V2 Old Forge Rd, Wimborne BH21 7RR, UK
p82
sVtypes
p83
(lp84
Vestablishment
p85
aVpoint_of_interest
p86
as.