(dp0
Vgeometry
p1
(dp2
Vlocation
p3
(dp4
Vlat
p5
F41.3054061
sVlng
p6
F-72.8796677
ssVviewport
p7
(dp8
Vnortheast
p9
(dp10
Vlat
p11
F41.3067550802915
sVlng
p12
F-72.87831871970849
ssVsouthwest
p13
(dp14
Vlat
p15
F41.3040571197085
sVlng
p16
F-72.88101668029151
sssVlocation_type
p17
VROOFTOP
p18
ssVaddress_components
p19
(lp20
(dp21
Vlong_name
p22
V225
p23
sVtypes
p24
(lp25
Vstreet_number
p26
asVshort_name
p27
V225
p28
sa(dp29
Vlong_name
p30
VEast Grand Avenue
p31
sVtypes
p32
(lp33
Vroute
p34
asVshort_name
p35
VE Grand Ave
p36
sa(dp37
Vlong_name
p38
VFair Haven Heights
p39
sVtypes
p40
(lp41
Vneighborhood
p42
aVpolitical
p43
asVshort_name
p44
VFair Haven Heights
p45
sa(dp46
Vlong_name
p47
VNew Haven
p48
sVtypes
p49
(lp50
Vlocality
p51
aVpolitical
p52
asVshort_name
p53
VNew Haven
p54
sa(dp55
Vlong_name
p56
VNew Haven County
p57
sVtypes
p58
(lp59
Vadministrative_area_level_2
p60
aVpolitical
p61
asVshort_name
p62
VNew Haven County
p63
sa(dp64
Vlong_name
p65
VConnecticut
p66
sVtypes
p67
(lp68
Vadministrative_area_level_1
p69
aVpolitical
p70
asVshort_name
p71
VCT
p72
sa(dp73
Vlong_name
p74
VUnited States
p75
sVtypes
p76
(lp77
Vcountry
p78
aVpolitical
p79
asVshort_name
p80
VUS
p81
sa(dp82
Vlong_name
p83
V06513
p84
sVtypes
p85
(lp86
Vpostal_code
p87
asVshort_name
p88
V06513
p89
sasVplace_id
p90
VChIJybJqK1m2Z0AR_CxwiGyafZ0
p91
sVformatted_address
p92
V225 E Grand Ave, New Haven, CT 06513, USA
p93
sVtypes
p94
(lp95
Vestablishment
p96
aVplace_of_worship
p97
aVpoint_of_interest
p98
as.