(dp0
Vgeometry
p1
(dp2
Vlocation
p3
(dp4
Vlat
p5
F49.99643
sVlng
p6
F8.272079999999999
ssVviewport
p7
(dp8
Vnortheast
p9
(dp10
Vlat
p11
F49.9977789802915
sVlng
p12
F8.2734289802915
ssVsouthwest
p13
(dp14
Vlat
p15
F49.9950810197085
sVlng
p16
F8.270731019708496
sssVlocation_type
p17
VROOFTOP
p18
ssVaddress_components
p19
(lp20
(dp21
Vlong_name
p22
V5
p23
sVtypes
p24
(lp25
Vstreet_number
p26
asVshort_name
p27
g23
sa(dp28
Vlong_name
p29
VWeihergarten
p30
sVtypes
p31
(lp32
Vroute
p33
asVshort_name
p34
VWeihergarten
p35
sa(dp36
Vlong_name
p37
VAltstadt
p38
sVtypes
p39
(lp40
Vpolitical
p41
aVsublocality
p42
aVsublocality_level_1
p43
asVshort_name
p44
VAltstadt
p45
sa(dp46
Vlong_name
p47
VMainz
p48
sVtypes
p49
(lp50
Vlocality
p51
aVpolitical
p52
asVshort_name
p53
VMZ
p54
sa(dp55
Vlong_name
p56
VRheinland-Pfalz
p57
sVtypes
p58
(lp59
Vadministrative_area_level_1
p60
aVpolitical
p61
asVshort_name
p62
VRP
p63
sa(dp64
Vlong_name
p65
VGermany
p66
sVtypes
p67
(lp68
Vcountry
p69
aVpolitical
p70
asVshort_name
p71
VDE
p72
sa(dp73
Vlong_name
p74
V55116
p75
sVtypes
p76
(lp77
Vpostal_code
p78
asVshort_name
p79
V55116
p80
sasVplace_id
p81
VChIJI6pbXhmXvUcRTqaHTP9KAHs
p82
sVformatted_address
p83
VWeihergarten 5, 55116 Mainz, Germany
p84
sVtypes
p85
(lp86
Vestablishment
p87
aVpoint_of_interest
p88
as.