(dp0
Vgeometry
p1
(dp2
Vlocation
p3
(dp4
Vlat
p5
F49.2815684
sVlng
p6
F-123.1041215
ssVviewport
p7
(dp8
Vnortheast
p9
(dp10
Vlat
p11
F49.28291738029149
sVlng
p12
F-123.1027725197085
ssVsouthwest
p13
(dp14
Vlat
p15
F49.28021941970849
sVlng
p16
F-123.1054704802915
sssVlocation_type
p17
VROOFTOP
p18
ssVaddress_components
p19
(lp20
(dp21
Vlong_name
p22
V1
p23
sVtypes
p24
(lp25
Vstreet_number
p26
asVshort_name
p27
g23
sa(dp28
Vlong_name
p29
VEast Hastings Street
p30
sVtypes
p31
(lp32
Vroute
p33
asVshort_name
p34
VE Hastings St
p35
sa(dp36
Vlong_name
p37
VCentral
p38
sVtypes
p39
(lp40
Vneighborhood
p41
aVpolitical
p42
asVshort_name
p43
VCentral
p44
sa(dp45
Vlong_name
p46
VVancouver
p47
sVtypes
p48
(lp49
Vlocality
p50
aVpolitical
p51
asVshort_name
p52
VVancouver
p53
sa(dp54
Vlong_name
p55
VGreater Vancouver
p56
sVtypes
p57
(lp58
Vadministrative_area_level_2
p59
aVpolitical
p60
asVshort_name
p61
VGreater Vancouver
p62
sa(dp63
Vlong_name
p64
VBritish Columbia
p65
sVtypes
p66
(lp67
Vadministrative_area_level_1
p68
aVpolitical
p69
asVshort_name
p70
VBC
p71
sa(dp72
Vlong_name
p73
VCanada
p74
sVtypes
p75
(lp76
Vcountry
p77
aVpolitical
p78
asVshort_name
p79
VCA
p80
sa(dp81
Vlong_name
p82
VV6A 1P9
p83
sVtypes
p84
(lp85
Vpostal_code
p86
asVshort_name
p87
VV6A 1P9
p88
sasVplace_id
p89
VChIJlXhOC3pxhlQRCcpif1s80GA
p90
sVformatted_address
p91
V1 E Hastings St, Vancouver, BC V6A 1P9, Canada
p92
sVtypes
p93
(lp94
Velectronics_store
p95
aVestablishment
p96
aVhome_goods_store
p97
aVpoint_of_interest
p98
aVstore
p99
as.