(dp0
Vgeometry
p1
(dp2
Vlocation_type
p3
VGEOMETRIC_CENTER
p4
sVbounds
p5
(dp6
Vnortheast
p7
(dp8
Vlat
p9
F33.3725251
sVlng
p10
F-111.7633619
ssVsouthwest
p11
(dp12
Vlat
p13
F33.3719083
sVlng
p14
F-111.7647164
sssVviewport
p15
(dp16
Vnortheast
p17
(dp18
Vlat
p19
F33.37356568029151
sVlng
p20
F-111.7626901697085
ssVsouthwest
p21
(dp22
Vlat
p23
F33.37086771970851
sVlng
p24
F-111.7653881302915
sssVlocation
p25
(dp26
Vlat
p27
F33.3722171
sVlng
p28
F-111.7639528
sssVformatted_address
p29
VE Sea Breeze Dr, Gilbert, AZ 85234, USA
p30
sVplace_id
p31
VChIJQR_FjiqpK4cR-9Q5k5ILhF4
p32
sVaddress_components
p33
(lp34
(dp35
Vlong_name
p36
VEast Sea Breeze Drive
p37
sVtypes
p38
(lp39
Vroute
p40
asVshort_name
p41
VE Sea Breeze Dr
p42
sa(dp43
Vlong_name
p44
VVal Vista Lakes
p45
sVtypes
p46
(lp47
Vneighborhood
p48
aVpolitical
p49
asVshort_name
p50
VVal Vista Lakes
p51
sa(dp52
Vlong_name
p53
VGilbert
p54
sVtypes
p55
(lp56
Vlocality
p57
aVpolitical
p58
asVshort_name
p59
VGilbert
p60
sa(dp61
Vlong_name
p62
VMaricopa County
p63
sVtypes
p64
(lp65
Vadministrative_area_level_2
p66
aVpolitical
p67
asVshort_name
p68
VMaricopa County
p69
sa(dp70
Vlong_name
p71
VArizona
p72
sVtypes
p73
(lp74
Vadministrative_area_level_1
p75
aVpolitical
p76
asVshort_name
p77
VAZ
p78
sa(dp79
Vlong_name
p80
VUnited States
p81
sVtypes
p82
(lp83
Vcountry
p84
aVpolitical
p85
asVshort_name
p86
VUS
p87
sa(dp88
Vlong_name
p89
V85234
p90
sVtypes
p91
(lp92
Vpostal_code
p93
asVshort_name
p94
V85234
p95
sasVpartial_match
p96
I01
sVtypes
p97
(lp98
Vroute
p99
as.