(dp0
Vgeometry
p1
(dp2
Vlocation
p3
(dp4
Vlat
p5
F30.2718634
sVlng
p6
F-97.7543015
ssVviewport
p7
(dp8
Vnortheast
p9
(dp10
Vlat
p11
F30.2732123802915
sVlng
p12
F-97.7529525197085
ssVsouthwest
p13
(dp14
Vlat
p15
F30.2705144197085
sVlng
p16
F-97.75565048029151
sssVlocation_type
p17
VROOFTOP
p18
ssVaddress_components
p19
(lp20
(dp21
Vlong_name
p22
V600
p23
sVtypes
p24
(lp25
Vstreet_number
p26
asVshort_name
p27
V600
p28
sa(dp29
Vlong_name
p30
VNorth Lamar Boulevard
p31
sVtypes
p32
(lp33
Vroute
p34
asVshort_name
p35
VN Lamar Blvd
p36
sa(dp37
Vlong_name
p38
VClarksville
p39
sVtypes
p40
(lp41
Vneighborhood
p42
aVpolitical
p43
asVshort_name
p44
VClarksville
p45
sa(dp46
Vlong_name
p47
VAustin
p48
sVtypes
p49
(lp50
Vlocality
p51
aVpolitical
p52
asVshort_name
p53
VAustin
p54
sa(dp55
Vlong_name
p56
VTravis County
p57
sVtypes
p58
(lp59
Vadministrative_area_level_2
p60
aVpolitical
p61
asVshort_name
p62
VTravis County
p63
sa(dp64
Vlong_name
p65
VTexas
p66
sVtypes
p67
(lp68
Vadministrative_area_level_1
p69
aVpolitical
p70
asVshort_name
p71
VTX
p72
sa(dp73
Vlong_name
p74
VUnited States
p75
sVtypes
p76
(lp77
Vcountry
p78
aVpolitical
p79
asVshort_name
p80
VUS
p81
sa(dp82
Vlong_name
p83
V78703
p84
sVtypes
p85
(lp86
Vpostal_code
p87
asVshort_name
p88
V78703
p89
sa(dp90
Vlong_name
p91
V5400
p92
sVtypes
p93
(lp94
Vpostal_code_suffix
p95
asVshort_name
p96
V5400
p97
sasVplace_id
p98
VChIJmyMFXBK1RIYR6r8QZXJ3Paw
p99
sVformatted_address
p100
V600 N Lamar Blvd, Austin, TX 78703, USA
p101
sVtypes
p102
(lp103
Velectronics_store
p104
aVestablishment
p105
aVhome_goods_store
p106
aVmovie_rental
p107
aVpoint_of_interest
p108
aVstore
p109
as.