(dp0
Vgeometry
p1
(dp2
Vlocation
p3
(dp4
Vlat
p5
F39.7507037
sVlng
p6
F-104.827797
ssVviewport
p7
(dp8
Vnortheast
p9
(dp10
Vlat
p11
F39.75205268029149
sVlng
p12
F-104.8264480197085
ssVsouthwest
p13
(dp14
Vlat
p15
F39.74935471970849
sVlng
p16
F-104.8291459802915
sssVlocation_type
p17
VRANGE_INTERPOLATED
p18
ssVformatted_address
p19
V44 S St, Aurora, CO 80045, USA
p20
sVplace_id
p21
VEh40NCBTIFN0LCBBdXJvcmEsIENPIDgwMDQ1LCBVU0EiGhIYChQKEgmHK6SeXGNshxGv7Bwk5a9aXhAs
p22
sVaddress_components
p23
(lp24
(dp25
Vlong_name
p26
V44
p27
sVtypes
p28
(lp29
Vstreet_number
p30
asVshort_name
p31
V44
p32
sa(dp33
Vlong_name
p34
VS Street
p35
sVtypes
p36
(lp37
Vroute
p38
asVshort_name
p39
VS St
p40
sa(dp41
Vlong_name
p42
VAurora
p43
sVtypes
p44
(lp45
Vlocality
p46
aVpolitical
p47
asVshort_name
p48
VAurora
p49
sa(dp50
Vlong_name
p51
VAdams County
p52
sVtypes
p53
(lp54
Vadministrative_area_level_2
p55
aVpolitical
p56
asVshort_name
p57
VAdams County
p58
sa(dp59
Vlong_name
p60
VColorado
p61
sVtypes
p62
(lp63
Vadministrative_area_level_1
p64
aVpolitical
p65
asVshort_name
p66
VCO
p67
sa(dp68
Vlong_name
p69
VUnited States
p70
sVtypes
p71
(lp72
Vcountry
p73
aVpolitical
p74
asVshort_name
p75
VUS
p76
sa(dp77
Vlong_name
p78
V80045
p79
sVtypes
p80
(lp81
Vpostal_code
p82
asVshort_name
p83
V80045
p84
sasVpartial_match
p85
I01
sVtypes
p86
(lp87
Vstreet_address
p88
as.