(dp0
Vgeometry
p1
(dp2
Vlocation
p3
(dp4
Vlat
p5
F35.1793335
sVlng
p6
F-89.8375252
ssVviewport
p7
(dp8
Vnortheast
p9
(dp10
Vlat
p11
F35.18068248029149
sVlng
p12
F-89.83617621970849
ssVsouthwest
p13
(dp14
Vlat
p15
F35.1779845197085
sVlng
p16
F-89.83887418029151
sssVlocation_type
p17
VROOFTOP
p18
ssVaddress_components
p19
(lp20
(dp21
Vlong_name
p22
V1981
p23
sVtypes
p24
(lp25
Vstreet_number
p26
asVshort_name
p27
V1981
p28
sa(dp29
Vlong_name
p30
VFletcher Creek Drive
p31
sVtypes
p32
(lp33
Vroute
p34
asVshort_name
p35
VFletcher Creek Dr
p36
sa(dp37
Vlong_name
p38
VMemphis
p39
sVtypes
p40
(lp41
Vlocality
p42
aVpolitical
p43
asVshort_name
p44
VMemphis
p45
sa(dp46
Vlong_name
p47
VShelby County
p48
sVtypes
p49
(lp50
Vadministrative_area_level_2
p51
aVpolitical
p52
asVshort_name
p53
VShelby County
p54
sa(dp55
Vlong_name
p56
VTennessee
p57
sVtypes
p58
(lp59
Vadministrative_area_level_1
p60
aVpolitical
p61
asVshort_name
p62
VTN
p63
sa(dp64
Vlong_name
p65
VUnited States
p66
sVtypes
p67
(lp68
Vcountry
p69
aVpolitical
p70
asVshort_name
p71
VUS
p72
sa(dp73
Vlong_name
p74
V38133
p75
sVtypes
p76
(lp77
Vpostal_code
p78
asVshort_name
p79
V38133
p80
sa(dp81
Vlong_name
p82
V7057
p83
sVtypes
p84
(lp85
Vpostal_code_suffix
p86
asVshort_name
p87
V7057
p88
sasVplace_id
p89
VChIJM2t3jCSdf4gRaEatdXxdiJo
p90
sVformatted_address
p91
V1981 Fletcher Creek Dr, Memphis, TN 38133, USA
p92
sVtypes
p93
(lp94
Velectronics_store
p95
aVestablishment
p96
aVhome_goods_store
p97
aVpoint_of_interest
p98
aVstore
p99
as.