(dp0
Vgeometry
p1
(dp2
Vlocation
p3
(dp4
Vlat
p5
F38.268731
sVlng
p6
F-104.614496
ssVviewport
p7
(dp8
Vnortheast
p9
(dp10
Vlat
p11
F38.27007998029149
sVlng
p12
F-104.6131470197085
ssVsouthwest
p13
(dp14
Vlat
p15
F38.26738201970849
sVlng
p16
F-104.6158449802915
sssVlocation_type
p17
VROOFTOP
p18
ssVaddress_components
p19
(lp20
(dp21
Vlong_name
p22
V# 120
p23
sVtypes
p24
(lp25
Vsubpremise
p26
asVshort_name
p27
V# 120
p28
sa(dp29
Vlong_name
p30
V205
p31
sVtypes
p32
(lp33
Vstreet_number
p34
asVshort_name
p35
V205
p36
sa(dp37
Vlong_name
p38
VNorth Elizabeth Street
p39
sVtypes
p40
(lp41
Vroute
p42
asVshort_name
p43
VN Elizabeth St
p44
sa(dp45
Vlong_name
p46
VDowntown
p47
sVtypes
p48
(lp49
Vneighborhood
p50
aVpolitical
p51
asVshort_name
p52
VDowntown
p53
sa(dp54
Vlong_name
p55
VPueblo
p56
sVtypes
p57
(lp58
Vlocality
p59
aVpolitical
p60
asVshort_name
p61
VPueblo
p62
sa(dp63
Vlong_name
p64
VPueblo County
p65
sVtypes
p66
(lp67
Vadministrative_area_level_2
p68
aVpolitical
p69
asVshort_name
p70
VPueblo County
p71
sa(dp72
Vlong_name
p73
VColorado
p74
sVtypes
p75
(lp76
Vadministrative_area_level_1
p77
aVpolitical
p78
asVshort_name
p79
VCO
p80
sa(dp81
Vlong_name
p82
VUnited States
p83
sVtypes
p84
(lp85
Vcountry
p86
aVpolitical
p87
asVshort_name
p88
VUS
p89
sa(dp90
Vlong_name
p91
V81003
p92
sVtypes
p93
(lp94
Vpostal_code
p95
asVshort_name
p96
V81003
p97
sa(dp98
Vlong_name
p99
V2328
p100
sVtypes
p101
(lp102
Vpostal_code_suffix
p103
asVshort_name
p104
V2328
p105
sasVplace_id
p106
VChIJjQHeqP2iE4cR1HKl1NVph9I
p107
sVformatted_address
p108
V205 N Elizabeth St # 120, Pueblo, CO 81003, USA
p109
sVtypes
p110
(lp111
Vestablishment
p112
aVpoint_of_interest
p113
as.