(dp0
Vgeometry
p1
(dp2
Vlocation
p3
(dp4
Vlat
p5
F37.1798664
sVlng
p6
F-119.4603798
ssVviewport
p7
(dp8
Vnortheast
p9
(dp10
Vlat
p11
F37.1812153802915
sVlng
p12
F-119.4590308197085
ssVsouthwest
p13
(dp14
Vlat
p15
F37.17851741970851
sVlng
p16
F-119.4617287802915
sssVlocation_type
p17
VROOFTOP
p18
ssVaddress_components
p19
(lp20
(dp21
Vlong_name
p22
V59810
p23
sVtypes
p24
(lp25
Vstreet_number
p26
asVshort_name
p27
V59810
p28
sa(dp29
Vlong_name
p30
VItalian Bar Road
p31
sVtypes
p32
(lp33
Vroute
p34
asVshort_name
p35
VItalian Bar Rd
p36
sa(dp37
Vlong_name
p38
VNorth Fork
p39
sVtypes
p40
(lp41
Vlocality
p42
aVpolitical
p43
asVshort_name
p44
VNorth Fork
p45
sa(dp46
Vlong_name
p47
VMadera County
p48
sVtypes
p49
(lp50
Vadministrative_area_level_2
p51
aVpolitical
p52
asVshort_name
p53
VMadera County
p54
sa(dp55
Vlong_name
p56
VCalifornia
p57
sVtypes
p58
(lp59
Vadministrative_area_level_1
p60
aVpolitical
p61
asVshort_name
p62
VCA
p63
sa(dp64
Vlong_name
p65
VUnited States
p66
sVtypes
p67
(lp68
Vcountry
p69
aVpolitical
p70
asVshort_name
p71
VUS
p72
sa(dp73
Vlong_name
p74
V93643
p75
sVtypes
p76
(lp77
Vpostal_code
p78
asVshort_name
p79
V93643
p80
sasVplace_id
p81
VChIJY4gqMQszlIAR4Zo2mDe-s64
p82
sVformatted_address
p83
V59810 Italian Bar Rd, North Fork, CA 93643, USA
p84
sVtypes
p85
(lp86
Velectronics_store
p87
aVestablishment
p88
aVhome_goods_store
p89
aVpoint_of_interest
p90
aVstore
p91
as.