(dp0
Vgeometry
p1
(dp2
Vlocation_type
p3
VAPPROXIMATE
p4
sVbounds
p5
(dp6
Vnortheast
p7
(dp8
Vlat
p9
F37.819348
sVlng
p10
F-107.650379
ssVsouthwest
p11
(dp12
Vlat
p13
F37.800546
sVlng
p14
F-107.677016
sssVviewport
p15
(dp16
Vnortheast
p17
(dp18
Vlat
p19
F37.819348
sVlng
p20
F-107.650379
ssVsouthwest
p21
(dp22
Vlat
p23
F37.800546
sVlng
p24
F-107.677016
sssVlocation
p25
(dp26
Vlat
p27
F37.811941
sVlng
p28
F-107.6645057
sssVformatted_address
p29
VSilverton, CO 81433, USA
p30
sVplace_id
p31
VChIJTT8-1PjnPocRP8t9tS4432g
p32
sVaddress_components
p33
(lp34
(dp35
Vlong_name
p36
VSilverton
p37
sVtypes
p38
(lp39
Vlocality
p40
aVpolitical
p41
asVshort_name
p42
VSilverton
p43
sa(dp44
Vlong_name
p45
VSan Juan County
p46
sVtypes
p47
(lp48
Vadministrative_area_level_2
p49
aVpolitical
p50
asVshort_name
p51
VSan Juan County
p52
sa(dp53
Vlong_name
p54
VColorado
p55
sVtypes
p56
(lp57
Vadministrative_area_level_1
p58
aVpolitical
p59
asVshort_name
p60
VCO
p61
sa(dp62
Vlong_name
p63
VUnited States
p64
sVtypes
p65
(lp66
Vcountry
p67
aVpolitical
p68
asVshort_name
p69
VUS
p70
sa(dp71
Vlong_name
p72
V81433
p73
sVtypes
p74
(lp75
Vpostal_code
p76
asVshort_name
p77
V81433
p78
sasVpartial_match
p79
I01
sVtypes
p80
(lp81
Vlocality
p82
aVpolitical
p83
as.