(dp0
Vgeometry
p1
(dp2
Vlocation_type
p3
VAPPROXIMATE
p4
sVbounds
p5
(dp6
Vnortheast
p7
(dp8
Vlat
p9
F37.88472489999999
sVlng
p10
F-122.114775
ssVsouthwest
p11
(dp12
Vlat
p13
F37.6322259
sVlng
p14
F-122.355881
sssVviewport
p15
(dp16
Vnortheast
p17
(dp18
Vlat
p19
F37.88472489999999
sVlng
p20
F-122.114775
ssVsouthwest
p21
(dp22
Vlat
p23
F37.6322259
sVlng
p24
F-122.355881
sssVlocation
p25
(dp26
Vlat
p27
F37.8043637
sVlng
p28
F-122.2711137
sssVformatted_address
p29
VOakland, CA, USA
p30
sVplace_id
p31
VChIJA-2qKIt9hYARZ5N1NdUVtHE
p32
sVaddress_components
p33
(lp34
(dp35
Vlong_name
p36
VOakland
p37
sVtypes
p38
(lp39
Vlocality
p40
aVpolitical
p41
asVshort_name
p42
VOakland
p43
sa(dp44
Vlong_name
p45
VAlameda County
p46
sVtypes
p47
(lp48
Vadministrative_area_level_2
p49
aVpolitical
p50
asVshort_name
p51
VAlameda County
p52
sa(dp53
Vlong_name
p54
VCalifornia
p55
sVtypes
p56
(lp57
Vadministrative_area_level_1
p58
aVpolitical
p59
asVshort_name
p60
VCA
p61
sa(dp62
Vlong_name
p63
VUnited States
p64
sVtypes
p65
(lp66
Vcountry
p67
aVpolitical
p68
asVshort_name
p69
VUS
p70
sasVpartial_match
p71
I01
sVtypes
p72
(lp73
Vlocality
p74
aVpolitical
p75
as.