(dp0
Vgeometry
p1
(dp2
Vlocation_type
p3
VAPPROXIMATE
p4
sVbounds
p5
(dp6
Vnortheast
p7
(dp8
Vlat
p9
F59.42784089999999
sVlng
p10
F18.198229
ssVsouthwest
p11
(dp12
Vlat
p13
F59.224443
sVlng
p14
F17.765876
sssVviewport
p15
(dp16
Vnortheast
p17
(dp18
Vlat
p19
F59.42784089999999
sVlng
p20
F18.198229
ssVsouthwest
p21
(dp22
Vlat
p23
F59.224443
sVlng
p24
F17.765876
sssVlocation
p25
(dp26
Vlat
p27
F59.32932349999999
sVlng
p28
F18.0685808
sssVformatted_address
p29
VStockholm, Sweden
p30
sVplace_id
p31
VChIJywtkGTF2X0YRZnedZ9MnDag
p32
sVaddress_components
p33
(lp34
(dp35
Vlong_name
p36
VStockholm
p37
sVtypes
p38
(lp39
Vlocality
p40
aVpolitical
p41
asVshort_name
p42
VStockholm
p43
sa(dp44
Vlong_name
p45
VStockholm County
p46
sVtypes
p47
(lp48
Vadministrative_area_level_1
p49
aVpolitical
p50
asVshort_name
p51
VStockholm County
p52
sa(dp53
Vlong_name
p54
VSweden
p55
sVtypes
p56
(lp57
Vcountry
p58
aVpolitical
p59
asVshort_name
p60
VSE
p61
sasVpartial_match
p62
I01
sVtypes
p63
(lp64
Vlocality
p65
aVpolitical
p66
as.