(dp0
Vgeometry
p1
(dp2
Vlocation
p3
(dp4
Vlat
p5
F44.6469706
sVlng
p6
F-63.5728271
ssVviewport
p7
(dp8
Vnortheast
p9
(dp10
Vlat
p11
F44.64831958029151
sVlng
p12
F-63.57147811970849
ssVsouthwest
p13
(dp14
Vlat
p15
F44.64562161970851
sVlng
p16
F-63.5741760802915
sssVlocation_type
p17
VROOFTOP
p18
ssVaddress_components
p19
(lp20
(dp21
Vlong_name
p22
V1674
p23
sVtypes
p24
(lp25
Vstreet_number
p26
asVshort_name
p27
V1674
p28
sa(dp29
Vlong_name
p30
VHollis Street
p31
sVtypes
p32
(lp33
Vroute
p34
asVshort_name
p35
VHollis St
p36
sa(dp37
Vlong_name
p38
VDowntown Halifax
p39
sVtypes
p40
(lp41
Vneighborhood
p42
aVpolitical
p43
asVshort_name
p44
VDowntown Halifax
p45
sa(dp46
Vlong_name
p47
VHalifax
p48
sVtypes
p49
(lp50
Vlocality
p51
aVpolitical
p52
asVshort_name
p53
VHalifax
p54
sa(dp55
Vlong_name
p56
VHalifax
p57
sVtypes
p58
(lp59
Vadministrative_area_level_3
p60
aVpolitical
p61
asVshort_name
p62
VHalifax
p63
sa(dp64
Vlong_name
p65
VHalifax Regional Municipality
p66
sVtypes
p67
(lp68
Vadministrative_area_level_2
p69
aVpolitical
p70
asVshort_name
p71
VHalifax Regional Municipality
p72
sa(dp73
Vlong_name
p74
VNova Scotia
p75
sVtypes
p76
(lp77
Vadministrative_area_level_1
p78
aVpolitical
p79
asVshort_name
p80
VNS
p81
sa(dp82
Vlong_name
p83
VCanada
p84
sVtypes
p85
(lp86
Vcountry
p87
aVpolitical
p88
asVshort_name
p89
VCA
p90
sa(dp91
Vlong_name
p92
VB3J 1V7
p93
sVtypes
p94
(lp95
Vpostal_code
p96
asVshort_name
p97
VB3J 1V7
p98
sasVplace_id
p99
VChIJZWkG68wjWksR0iMJ1D1J0l4
p100
sVformatted_address
p101
V1674 Hollis St, Halifax, NS B3J 1V7, Canada
p102
sVtypes
p103
(lp104
Vestablishment
p105
aVpoint_of_interest
p106
as.