(dp0
Vgeometry
p1
(dp2
Vlocation
p3
(dp4
Vlat
p5
F40.462668
sVlng
p6
F-3.688955
ssVviewport
p7
(dp8
Vnortheast
p9
(dp10
Vlat
p11
F40.4640169802915
sVlng
p12
F-3.687606019708498
ssVsouthwest
p13
(dp14
Vlat
p15
F40.4613190197085
sVlng
p16
F-3.690303980291502
sssVlocation_type
p17
VGEOMETRIC_CENTER
p18
ssVaddress_components
p19
(lp20
(dp21
Vlong_name
p22
VMadrid
p23
sVtypes
p24
(lp25
Vadministrative_area_level_2
p26
aVpolitical
p27
asVshort_name
p28
VM
p29
sa(dp30
Vlong_name
p31
VSpain
p32
sVtypes
p33
(lp34
Vcountry
p35
aVpolitical
p36
asVshort_name
p37
VES
p38
sa(dp39
Vlong_name
p40
V28046
p41
sVtypes
p42
(lp43
Vpostal_code
p44
asVshort_name
p45
V28046
p46
sasVplace_id
p47
VChIJgdsETUyJQQ0RG29H77PP-xg
p48
sVformatted_address
p49
VPaseo de la Castellana, 202, 28046, Madrid, Spain
p50
sVtypes
p51
(lp52
Vestablishment
p53
aVpoint_of_interest
p54
as.