(dp0
Vgeometry
p1
(dp2
Vlocation
p3
(dp4
Vlat
p5
F43.721072
sVlng
p6
F-79.3320038
ssVviewport
p7
(dp8
Vnortheast
p9
(dp10
Vlat
p11
F43.7224209802915
sVlng
p12
F-79.33065481970849
ssVsouthwest
p13
(dp14
Vlat
p15
F43.7197230197085
sVlng
p16
F-79.33335278029149
sssVlocation_type
p17
VGEOMETRIC_CENTER
p18
ssVaddress_components
p19
(lp20
(dp21
Vlong_name
p22
V150 Ferrand Drive
p23
sVtypes
p24
(lp25
Vroute
p26
asVshort_name
p27
V150 Ferrand Drive
p28
sa(dp29
Vlong_name
p30
VNorth York
p31
sVtypes
p32
(lp33
Vpolitical
p34
aVsublocality
p35
aVsublocality_level_1
p36
asVshort_name
p37
VNorth York
p38
sa(dp39
Vlong_name
p40
VToronto
p41
sVtypes
p42
(lp43
Vlocality
p44
aVpolitical
p45
asVshort_name
p46
VToronto
p47
sa(dp48
Vlong_name
p49
VToronto Division
p50
sVtypes
p51
(lp52
Vadministrative_area_level_2
p53
aVpolitical
p54
asVshort_name
p55
VToronto Division
p56
sa(dp57
Vlong_name
p58
VOntario
p59
sVtypes
p60
(lp61
Vadministrative_area_level_1
p62
aVpolitical
p63
asVshort_name
p64
VON
p65
sa(dp66
Vlong_name
p67
VCanada
p68
sVtypes
p69
(lp70
Vcountry
p71
aVpolitical
p72
asVshort_name
p73
VCA
p74
sa(dp75
Vlong_name
p76
VM3C 3E5
p77
sVtypes
p78
(lp79
Vpostal_code
p80
asVshort_name
p81
VM3C 3E5
p82
sasVplace_id
p83
VChIJHbH7y6fN1IkR3BTxr4jsLeI
p84
sVformatted_address
p85
V150 Ferrand Drive, North York, ON M3C 3E5, Canada
p86
sVtypes
p87
(lp88
Vestablishment
p89
aVpoint_of_interest
p90
as.