(dp0
Vgeometry
p1
(dp2
Vlocation
p3
(dp4
Vlat
p5
F25.7832273
sVlng
p6
F-80.28141049999999
ssVviewport
p7
(dp8
Vnortheast
p9
(dp10
Vlat
p11
F25.7845762802915
sVlng
p12
F-80.2800615197085
ssVsouthwest
p13
(dp14
Vlat
p15
F25.7818783197085
sVlng
p16
F-80.2827594802915
sssVlocation_type
p17
VROOFTOP
p18
ssVaddress_components
p19
(lp20
(dp21
Vlong_name
p22
V5201
p23
sVtypes
p24
(lp25
Vstreet_number
p26
asVshort_name
p27
V5201
p28
sa(dp29
Vlong_name
p30
VBlue Lagoon Drive
p31
sVtypes
p32
(lp33
Vroute
p34
asVshort_name
p35
VBlue Lagoon Dr
p36
sa(dp37
Vlong_name
p38
VMiami
p39
sVtypes
p40
(lp41
Vlocality
p42
aVpolitical
p43
asVshort_name
p44
VMiami
p45
sa(dp46
Vlong_name
p47
VMiami-Dade County
p48
sVtypes
p49
(lp50
Vadministrative_area_level_2
p51
aVpolitical
p52
asVshort_name
p53
VMiami-Dade County
p54
sa(dp55
Vlong_name
p56
VFlorida
p57
sVtypes
p58
(lp59
Vadministrative_area_level_1
p60
aVpolitical
p61
asVshort_name
p62
VFL
p63
sa(dp64
Vlong_name
p65
VUnited States
p66
sVtypes
p67
(lp68
Vcountry
p69
aVpolitical
p70
asVshort_name
p71
VUS
p72
sa(dp73
Vlong_name
p74
V33126
p75
sVtypes
p76
(lp77
Vpostal_code
p78
asVshort_name
p79
V33126
p80
sasVplace_id
p81
VChIJ7Toiid652YgR9MPb_D3xFnw
p82
sVformatted_address
p83
V5201 Blue Lagoon Dr, Miami, FL 33126, USA
p84
sVtypes
p85
(lp86
Vestablishment
p87
aVpoint_of_interest
p88
as.