(dp0
Vgeometry
p1
(dp2
Vlocation
p3
(dp4
Vlat
p5
F36.1513085
sVlng
p6
F-86.7926488
ssVviewport
p7
(dp8
Vnortheast
p9
(dp10
Vlat
p11
F36.1526574802915
sVlng
p12
F-86.79129981970848
ssVsouthwest
p13
(dp14
Vlat
p15
F36.1499595197085
sVlng
p16
F-86.79399778029149
sssVlocation_type
p17
VROOFTOP
p18
ssVaddress_components
p19
(lp20
(dp21
Vlong_name
p22
V8
p23
sVtypes
p24
(lp25
Vstreet_number
p26
asVshort_name
p27
g23
sa(dp28
Vlong_name
p29
VMusic Square West
p30
sVtypes
p31
(lp32
Vroute
p33
asVshort_name
p34
VMusic Square W
p35
sa(dp36
Vlong_name
p37
VMidtown
p38
sVtypes
p39
(lp40
Vneighborhood
p41
aVpolitical
p42
asVshort_name
p43
VMidtown
p44
sa(dp45
Vlong_name
p46
VNashville
p47
sVtypes
p48
(lp49
Vlocality
p50
aVpolitical
p51
asVshort_name
p52
VNashville
p53
sa(dp54
Vlong_name
p55
VDavidson County
p56
sVtypes
p57
(lp58
Vadministrative_area_level_2
p59
aVpolitical
p60
asVshort_name
p61
VDavidson County
p62
sa(dp63
Vlong_name
p64
VTennessee
p65
sVtypes
p66
(lp67
Vadministrative_area_level_1
p68
aVpolitical
p69
asVshort_name
p70
VTN
p71
sa(dp72
Vlong_name
p73
VUnited States
p74
sVtypes
p75
(lp76
Vcountry
p77
aVpolitical
p78
asVshort_name
p79
VUS
p80
sa(dp81
Vlong_name
p82
V37203
p83
sVtypes
p84
(lp85
Vpostal_code
p86
asVshort_name
p87
V37203
p88
sa(dp89
Vlong_name
p90
V3204
p91
sVtypes
p92
(lp93
Vpostal_code_suffix
p94
asVshort_name
p95
V3204
p96
sasVplace_id
p97
VChIJU7QxbZJmZIgRnXAnHAJdvu4
p98
sVformatted_address
p99
V8 Music Square W, Nashville, TN 37203, USA
p100
sVtypes
p101
(lp102
Vestablishment
p103
aVpoint_of_interest
p104
as.