(dp0
Vgeometry
p1
(dp2
Vlocation_type
p3
VAPPROXIMATE
p4
sVbounds
p5
(dp6
Vnortheast
p7
(dp8
Vlat
p9
F42.897515
sVlng
p10
F-72.53285
ssVsouthwest
p11
(dp12
Vlat
p13
F42.823823
sVlng
p14
F-72.600189
sssVviewport
p15
(dp16
Vnortheast
p17
(dp18
Vlat
p19
F42.897515
sVlng
p20
F-72.53285
ssVsouthwest
p21
(dp22
Vlat
p23
F42.823823
sVlng
p24
F-72.600189
sssVlocation
p25
(dp26
Vlat
p27
F42.8509152
sVlng
p28
F-72.5578678
sssVformatted_address
p29
VBrattleboro, VT 05301, USA
p30
sVplace_id
p31
VChIJtYlagDUa4YkR8liXLmTg3GE
p32
sVaddress_components
p33
(lp34
(dp35
Vlong_name
p36
VBrattleboro
p37
sVtypes
p38
(lp39
Vlocality
p40
aVpolitical
p41
asVshort_name
p42
VBrattleboro
p43
sa(dp44
Vlong_name
p45
VBrattleboro
p46
sVtypes
p47
(lp48
Vadministrative_area_level_3
p49
aVpolitical
p50
asVshort_name
p51
VBrattleboro
p52
sa(dp53
Vlong_name
p54
VWindham County
p55
sVtypes
p56
(lp57
Vadministrative_area_level_2
p58
aVpolitical
p59
asVshort_name
p60
VWindham County
p61
sa(dp62
Vlong_name
p63
VVermont
p64
sVtypes
p65
(lp66
Vadministrative_area_level_1
p67
aVpolitical
p68
asVshort_name
p69
VVT
p70
sa(dp71
Vlong_name
p72
VUnited States
p73
sVtypes
p74
(lp75
Vcountry
p76
aVpolitical
p77
asVshort_name
p78
VUS
p79
sa(dp80
Vlong_name
p81
V05301
p82
sVtypes
p83
(lp84
Vpostal_code
p85
asVshort_name
p86
V05301
p87
sasVpartial_match
p88
I01
sVtypes
p89
(lp90
Vlocality
p91
aVpolitical
p92
as.