(dp0
Vgeometry
p1
(dp2
Vlocation
p3
(dp4
Vlat
p5
F34.09524
sVlng
p6
F-118.2837445
ssVviewport
p7
(dp8
Vnortheast
p9
(dp10
Vlat
p11
F34.0965889802915
sVlng
p12
F-118.2823955197085
ssVsouthwest
p13
(dp14
Vlat
p15
F34.0938910197085
sVlng
p16
F-118.2850934802915
sssVlocation_type
p17
VROOFTOP
p18
ssVaddress_components
p19
(lp20
(dp21
Vlong_name
p22
V4334
p23
sVtypes
p24
(lp25
Vstreet_number
p26
asVshort_name
p27
V4334
p28
sa(dp29
Vlong_name
p30
VSunset Boulevard
p31
sVtypes
p32
(lp33
Vroute
p34
asVshort_name
p35
VSunset Blvd
p36
sa(dp37
Vlong_name
p38
VSilver Lake
p39
sVtypes
p40
(lp41
Vneighborhood
p42
aVpolitical
p43
asVshort_name
p44
VSilver Lake
p45
sa(dp46
Vlong_name
p47
VLos Angeles
p48
sVtypes
p49
(lp50
Vlocality
p51
aVpolitical
p52
asVshort_name
p53
VLos Angeles
p54
sa(dp55
Vlong_name
p56
VLos Angeles County
p57
sVtypes
p58
(lp59
Vadministrative_area_level_2
p60
aVpolitical
p61
asVshort_name
p62
VLos Angeles County
p63
sa(dp64
Vlong_name
p65
VCalifornia
p66
sVtypes
p67
(lp68
Vadministrative_area_level_1
p69
aVpolitical
p70
asVshort_name
p71
VCA
p72
sa(dp73
Vlong_name
p74
VUnited States
p75
sVtypes
p76
(lp77
Vcountry
p78
aVpolitical
p79
asVshort_name
p80
VUS
p81
sa(dp82
Vlong_name
p83
V90029
p84
sVtypes
p85
(lp86
Vpostal_code
p87
asVshort_name
p88
V90029
p89
sa(dp90
Vlong_name
p91
V2112
p92
sVtypes
p93
(lp94
Vpostal_code_suffix
p95
asVshort_name
p96
V2112
p97
sasVplace_id
p98
VChIJMy3JQEzHwoARtJaUpHQaXJw
p99
sVformatted_address
p100
V4334 Sunset Blvd, Los Angeles, CA 90029, USA
p101
sVtypes
p102
(lp103
Vcar_repair
p104
aVestablishment
p105
aVpoint_of_interest
p106
as.