(dp0
Vgeometry
p1
(dp2
Vlocation
p3
(dp4
Vlat
p5
F52.338394
sVlng
p6
F4.625967
ssVviewport
p7
(dp8
Vnortheast
p9
(dp10
Vlat
p11
F52.3397429802915
sVlng
p12
F4.627315980291502
ssVsouthwest
p13
(dp14
Vlat
p15
F52.3370450197085
sVlng
p16
F4.624618019708498
sssVlocation_type
p17
VROOFTOP
p18
ssVaddress_components
p19
(lp20
(dp21
Vlong_name
p22
V16
p23
sVtypes
p24
(lp25
Vstreet_number
p26
asVshort_name
p27
V16
p28
sa(dp29
Vlong_name
p30
VSportparklaan
p31
sVtypes
p32
(lp33
Vroute
p34
asVshort_name
p35
VSportparklaan
p36
sa(dp37
Vlong_name
p38
VHeemstede
p39
sVtypes
p40
(lp41
Vlocality
p42
aVpolitical
p43
asVshort_name
p44
VHeemstede
p45
sa(dp46
Vlong_name
p47
VHeemstede
p48
sVtypes
p49
(lp50
Vadministrative_area_level_2
p51
aVpolitical
p52
asVshort_name
p53
VHeemstede
p54
sa(dp55
Vlong_name
p56
VNoord-Holland
p57
sVtypes
p58
(lp59
Vadministrative_area_level_1
p60
aVpolitical
p61
asVshort_name
p62
VNH
p63
sa(dp64
Vlong_name
p65
VNetherlands
p66
sVtypes
p67
(lp68
Vcountry
p69
aVpolitical
p70
asVshort_name
p71
VNL
p72
sa(dp73
Vlong_name
p74
V2103 VT
p75
sVtypes
p76
(lp77
Vpostal_code
p78
asVshort_name
p79
V2103 VT
p80
sasVplace_id
p81
VChIJxWeQbr_oxUcRQrdBIfHICew
p82
sVformatted_address
p83
VSportparklaan 16, 2103 VT Heemstede, Netherlands
p84
sVtypes
p85
(lp86
Vestablishment
p87
aVpoint_of_interest
p88
as.