(dp0
Vgeometry
p1
(dp2
Vlocation
p3
(dp4
Vlat
p5
F37.749966
sVlng
p6
F-122.4044293
ssVviewport
p7
(dp8
Vnortheast
p9
(dp10
Vlat
p11
F37.7513149802915
sVlng
p12
F-122.4030803197085
ssVsouthwest
p13
(dp14
Vlat
p15
F37.7486170197085
sVlng
p16
F-122.4057782802915
sssVlocation_type
p17
VROOFTOP
p18
ssVaddress_components
p19
(lp20
(dp21
Vlong_name
p22
V1466
p23
sVtypes
p24
(lp25
Vstreet_number
p26
asVshort_name
p27
V1466
p28
sa(dp29
Vlong_name
p30
VSan Bruno Avenue
p31
sVtypes
p32
(lp33
Vroute
p34
asVshort_name
p35
VSan Bruno Ave
p36
sa(dp37
Vlong_name
p38
VMission District
p39
sVtypes
p40
(lp41
Vneighborhood
p42
aVpolitical
p43
asVshort_name
p44
VMission District
p45
sa(dp46
Vlong_name
p47
VSan Francisco
p48
sVtypes
p49
(lp50
Vlocality
p51
aVpolitical
p52
asVshort_name
p53
VSF
p54
sa(dp55
Vlong_name
p56
VSan Francisco County
p57
sVtypes
p58
(lp59
Vadministrative_area_level_2
p60
aVpolitical
p61
asVshort_name
p62
VSan Francisco County
p63
sa(dp64
Vlong_name
p65
VCalifornia
p66
sVtypes
p67
(lp68
Vadministrative_area_level_1
p69
aVpolitical
p70
asVshort_name
p71
VCA
p72
sa(dp73
Vlong_name
p74
VUnited States
p75
sVtypes
p76
(lp77
Vcountry
p78
aVpolitical
p79
asVshort_name
p80
VUS
p81
sa(dp82
Vlong_name
p83
V94110
p84
sVtypes
p85
(lp86
Vpostal_code
p87
asVshort_name
p88
V94110
p89
sasVplace_id
p90
VChIJEXpHAE1-j4AR-F3k-VSZcwY
p91
sVformatted_address
p92
V1466 San Bruno Ave, San Francisco, CA 94110, USA
p93
sVtypes
p94
(lp95
Vestablishment
p96
aVpoint_of_interest
p97
as.