(dp0
Vgeometry
p1
(dp2
Vlocation
p3
(dp4
Vlat
p5
F44.8304419
sVlng
p6
F-0.5722210999999999
ssVviewport
p7
(dp8
Vnortheast
p9
(dp10
Vlat
p11
F44.8317908802915
sVlng
p12
F-0.5708721197084978
ssVsouthwest
p13
(dp14
Vlat
p15
F44.8290929197085
sVlng
p16
F-0.5735700802915019
sssVlocation_type
p17
VROOFTOP
p18
ssVaddress_components
p19
(lp20
(dp21
Vlong_name
p22
V12
p23
sVtypes
p24
(lp25
Vstreet_number
p26
asVshort_name
p27
V12
p28
sa(dp29
Vlong_name
p30
VPlace de la Victoire
p31
sVtypes
p32
(lp33
Vroute
p34
asVshort_name
p35
VPlace de la Victoire
p36
sa(dp37
Vlong_name
p38
VBordeaux
p39
sVtypes
p40
(lp41
Vlocality
p42
aVpolitical
p43
asVshort_name
p44
VBordeaux
p45
sa(dp46
Vlong_name
p47
VGironde
p48
sVtypes
p49
(lp50
Vadministrative_area_level_2
p51
aVpolitical
p52
asVshort_name
p53
VGironde
p54
sa(dp55
Vlong_name
p56
VNouvelle-Aquitaine
p57
sVtypes
p58
(lp59
Vadministrative_area_level_1
p60
aVpolitical
p61
asVshort_name
p62
VNouvelle-Aquitaine
p63
sa(dp64
Vlong_name
p65
VFrance
p66
sVtypes
p67
(lp68
Vcountry
p69
aVpolitical
p70
asVshort_name
p71
VFR
p72
sa(dp73
Vlong_name
p74
V33000
p75
sVtypes
p76
(lp77
Vpostal_code
p78
asVshort_name
p79
V33000
p80
sasVplace_id
p81
VChIJ5VsvHcgnVQ0RqNTHBt_7oH8
p82
sVformatted_address
p83
V12 Place de la Victoire, 33000 Bordeaux, France
p84
sVtypes
p85
(lp86
Vestablishment
p87
aVpoint_of_interest
p88
as.