(dp0
Vgeometry
p1
(dp2
Vlocation
p3
(dp4
Vlat
p5
F51.8236477
sVlng
p6
F-0.8455395
ssVviewport
p7
(dp8
Vnortheast
p9
(dp10
Vlat
p11
F51.82499668029151
sVlng
p12
F-0.844190519708498
ssVsouthwest
p13
(dp14
Vlat
p15
F51.82229871970851
sVlng
p16
F-0.8468884802915021
sssVlocation_type
p17
VGEOMETRIC_CENTER
p18
ssVaddress_components
p19
(lp20
(dp21
Vlong_name
p22
VRabans Lane
p23
sVtypes
p24
(lp25
Vroute
p26
asVshort_name
p27
VRabans Ln
p28
sa(dp29
Vlong_name
p30
VAylesbury
p31
sVtypes
p32
(lp33
Vpostal_town
p34
asVshort_name
p35
VAylesbury
p36
sa(dp37
Vlong_name
p38
VBuckinghamshire
p39
sVtypes
p40
(lp41
Vadministrative_area_level_2
p42
aVpolitical
p43
asVshort_name
p44
VBuckinghamshire
p45
sa(dp46
Vlong_name
p47
VEngland
p48
sVtypes
p49
(lp50
Vadministrative_area_level_1
p51
aVpolitical
p52
asVshort_name
p53
VEngland
p54
sa(dp55
Vlong_name
p56
VUnited Kingdom
p57
sVtypes
p58
(lp59
Vcountry
p60
aVpolitical
p61
asVshort_name
p62
VGB
p63
sa(dp64
Vlong_name
p65
VHP19 8TS
p66
sVtypes
p67
(lp68
Vpostal_code
p69
asVshort_name
p70
VHP19 8TS
p71
sasVplace_id
p72
VChIJh_HlUTn3dkgRz_NlhUR_U48
p73
sVformatted_address
p74
VRabans Ln, Aylesbury HP19 8TS, UK
p75
sVtypes
p76
(lp77
Vestablishment
p78
aVpoint_of_interest
p79
as.