(dp0
Vgeometry
p1
(dp2
Vlocation
p3
(dp4
Vlat
p5
F38.9886325
sVlng
p6
F-94.57557039999999
ssVviewport
p7
(dp8
Vnortheast
p9
(dp10
Vlat
p11
F38.9899814802915
sVlng
p12
F-94.57422141970848
ssVsouthwest
p13
(dp14
Vlat
p15
F38.98728351970851
sVlng
p16
F-94.5769193802915
sssVlocation_type
p17
VROOFTOP
p18
ssVaddress_components
p19
(lp20
(dp21
Vlong_name
p22
V7621
p23
sVtypes
p24
(lp25
Vstreet_number
p26
asVshort_name
p27
V7621
p28
sa(dp29
Vlong_name
p30
VTroost Avenue
p31
sVtypes
p32
(lp33
Vroute
p34
asVshort_name
p35
VTroost Ave
p36
sa(dp37
Vlong_name
p38
VEast Meyer 6
p39
sVtypes
p40
(lp41
Vneighborhood
p42
aVpolitical
p43
asVshort_name
p44
VEast Meyer 6
p45
sa(dp46
Vlong_name
p47
VKansas City
p48
sVtypes
p49
(lp50
Vlocality
p51
aVpolitical
p52
asVshort_name
p53
VKCMO
p54
sa(dp55
Vlong_name
p56
VBrooking Township
p57
sVtypes
p58
(lp59
Vadministrative_area_level_3
p60
aVpolitical
p61
asVshort_name
p62
VBrooking Township
p63
sa(dp64
Vlong_name
p65
VJackson County
p66
sVtypes
p67
(lp68
Vadministrative_area_level_2
p69
aVpolitical
p70
asVshort_name
p71
VJackson County
p72
sa(dp73
Vlong_name
p74
VMissouri
p75
sVtypes
p76
(lp77
Vadministrative_area_level_1
p78
aVpolitical
p79
asVshort_name
p80
VMO
p81
sa(dp82
Vlong_name
p83
VUnited States
p84
sVtypes
p85
(lp86
Vcountry
p87
aVpolitical
p88
asVshort_name
p89
VUS
p90
sa(dp91
Vlong_name
p92
V64131
p93
sVtypes
p94
(lp95
Vpostal_code
p96
asVshort_name
p97
V64131
p98
sa(dp99
Vlong_name
p100
V2063
p101
sVtypes
p102
(lp103
Vpostal_code_suffix
p104
asVshort_name
p105
V2063
p106
sasVplace_id
p107
VChIJ5drPTBnwwIcRWnxZxROEiLU
p108
sVformatted_address
p109
V7621 Troost Ave, Kansas City, MO 64131, USA
p110
sVtypes
p111
(lp112
Velectronics_store
p113
aVestablishment
p114
aVhome_goods_store
p115
aVpoint_of_interest
p116
aVstore
p117
as.