(dp0
Vgeometry
p1
(dp2
Vlocation_type
p3
VAPPROXIMATE
p4
sVbounds
p5
(dp6
Vnortheast
p7
(dp8
Vlat
p9
F40.98900889999999
sVlng
p10
F-73.4232531
ssVsouthwest
p11
(dp12
Vlat
p13
F40.520505
sVlng
p14
F-73.78019309999999
sssVviewport
p15
(dp16
Vnortheast
p17
(dp18
Vlat
p19
F40.98900889999999
sVlng
p20
F-73.4232531
ssVsouthwest
p21
(dp22
Vlat
p23
F40.520505
sVlng
p24
F-73.78019309999999
sssVlocation
p25
(dp26
Vlat
p27
F40.6546145
sVlng
p28
F-73.55941279999999
sssVformatted_address
p29
VNassau County, NY, USA
p30
sVplace_id
p31
VChIJoQxey52xwokRap4G05mKJBs
p32
sVaddress_components
p33
(lp34
(dp35
Vlong_name
p36
VNassau County
p37
sVtypes
p38
(lp39
Vadministrative_area_level_2
p40
aVpolitical
p41
asVshort_name
p42
VNassau County
p43
sa(dp44
Vlong_name
p45
VNew York
p46
sVtypes
p47
(lp48
Vadministrative_area_level_1
p49
aVpolitical
p50
asVshort_name
p51
VNY
p52
sa(dp53
Vlong_name
p54
VUnited States
p55
sVtypes
p56
(lp57
Vcountry
p58
aVpolitical
p59
asVshort_name
p60
VUS
p61
sasVpartial_match
p62
I01
sVtypes
p63
(lp64
Vadministrative_area_level_2
p65
aVpolitical
p66
as.