(dp0
Vgeometry
p1
(dp2
Vlocation
p3
(dp4
Vlat
p5
F36.1521981
sVlng
p6
F-86.7779837
ssVviewport
p7
(dp8
Vnortheast
p9
(dp10
Vlat
p11
F36.1535470802915
sVlng
p12
F-86.7766347197085
ssVsouthwest
p13
(dp14
Vlat
p15
F36.1508491197085
sVlng
p16
F-86.7793326802915
sssVlocation_type
p17
VROOFTOP
p18
ssVaddress_components
p19
(lp20
(dp21
Vlong_name
p22
V623
p23
sVtypes
p24
(lp25
Vstreet_number
p26
asVshort_name
p27
V623
p28
sa(dp29
Vlong_name
p30
V7th Avenue South
p31
sVtypes
p32
(lp33
Vroute
p34
asVshort_name
p35
V7th Ave S
p36
sa(dp37
Vlong_name
p38
VDowntown
p39
sVtypes
p40
(lp41
Vneighborhood
p42
aVpolitical
p43
asVshort_name
p44
VDowntown
p45
sa(dp46
Vlong_name
p47
VNashville
p48
sVtypes
p49
(lp50
Vlocality
p51
aVpolitical
p52
asVshort_name
p53
VNashville
p54
sa(dp55
Vlong_name
p56
VDavidson County
p57
sVtypes
p58
(lp59
Vadministrative_area_level_2
p60
aVpolitical
p61
asVshort_name
p62
VDavidson County
p63
sa(dp64
Vlong_name
p65
VTennessee
p66
sVtypes
p67
(lp68
Vadministrative_area_level_1
p69
aVpolitical
p70
asVshort_name
p71
VTN
p72
sa(dp73
Vlong_name
p74
VUnited States
p75
sVtypes
p76
(lp77
Vcountry
p78
aVpolitical
p79
asVshort_name
p80
VUS
p81
sa(dp82
Vlong_name
p83
V37203
p84
sVtypes
p85
(lp86
Vpostal_code
p87
asVshort_name
p88
V37203
p89
sa(dp90
Vlong_name
p91
V4601
p92
sVtypes
p93
(lp94
Vpostal_code_suffix
p95
asVshort_name
p96
V4601
p97
sasVplace_id
p98
VChIJ0ck732BmZIgRRIrmOe6JQqo
p99
sVformatted_address
p100
V623 7th Ave S, Nashville, TN 37203, USA
p101
sVtypes
p102
(lp103
Velectronics_store
p104
aVestablishment
p105
aVhome_goods_store
p106
aVpoint_of_interest
p107
aVstore
p108
as.