(dp0
Vgeometry
p1
(dp2
Vlocation
p3
(dp4
Vlat
p5
F32.7126294
sVlng
p6
F-117.1349781
ssVviewport
p7
(dp8
Vnortheast
p9
(dp10
Vlat
p11
F32.7139783802915
sVlng
p12
F-117.1336291197085
ssVsouthwest
p13
(dp14
Vlat
p15
F32.7112804197085
sVlng
p16
F-117.1363270802915
sssVlocation_type
p17
VROOFTOP
p18
ssVformatted_address
p19
V2741 1/2 G St, San Diego, CA 92102, USA
p20
sVplace_id
p21
VChIJoam6VnpT2YAR7ohpd1AI58o
p22
sVaddress_components
p23
(lp24
(dp25
Vlong_name
p26
V2741 1/2
p27
sVtypes
p28
(lp29
Vstreet_number
p30
asVshort_name
p31
V2741 1/2
p32
sa(dp33
Vlong_name
p34
VG Street
p35
sVtypes
p36
(lp37
Vroute
p38
asVshort_name
p39
VG St
p40
sa(dp41
Vlong_name
p42
VGrant Hill
p43
sVtypes
p44
(lp45
Vneighborhood
p46
aVpolitical
p47
asVshort_name
p48
VGrant Hill
p49
sa(dp50
Vlong_name
p51
VSan Diego
p52
sVtypes
p53
(lp54
Vlocality
p55
aVpolitical
p56
asVshort_name
p57
VSan Diego
p58
sa(dp59
Vlong_name
p60
VSan Diego County
p61
sVtypes
p62
(lp63
Vadministrative_area_level_2
p64
aVpolitical
p65
asVshort_name
p66
VSan Diego County
p67
sa(dp68
Vlong_name
p69
VCalifornia
p70
sVtypes
p71
(lp72
Vadministrative_area_level_1
p73
aVpolitical
p74
asVshort_name
p75
VCA
p76
sa(dp77
Vlong_name
p78
VUnited States
p79
sVtypes
p80
(lp81
Vcountry
p82
aVpolitical
p83
asVshort_name
p84
VUS
p85
sa(dp86
Vlong_name
p87
V92102
p88
sVtypes
p89
(lp90
Vpostal_code
p91
asVshort_name
p92
V92102
p93
sa(dp94
Vlong_name
p95
V3114
p96
sVtypes
p97
(lp98
Vpostal_code_suffix
p99
asVshort_name
p100
V3114
p101
sasVpartial_match
p102
I01
sVtypes
p103
(lp104
Vstreet_address
p105
as.