(dp0
Vgeometry
p1
(dp2
Vlocation
p3
(dp4
Vlat
p5
F47.6398777
sVlng
p6
F-122.3660311
ssVviewport
p7
(dp8
Vnortheast
p9
(dp10
Vlat
p11
F47.6412266802915
sVlng
p12
F-122.3646821197085
ssVsouthwest
p13
(dp14
Vlat
p15
F47.6385287197085
sVlng
p16
F-122.3673800802915
sssVlocation_type
p17
VROOFTOP
p18
ssVaddress_components
p19
(lp20
(dp21
Vlong_name
p22
V2412
p23
sVtypes
p24
(lp25
Vstreet_number
p26
asVshort_name
p27
V2412
p28
sa(dp29
Vlong_name
p30
V7th Avenue West
p31
sVtypes
p32
(lp33
Vroute
p34
asVshort_name
p35
V7th Ave W
p36
sa(dp37
Vlong_name
p38
VNorth Queen Anne
p39
sVtypes
p40
(lp41
Vneighborhood
p42
aVpolitical
p43
asVshort_name
p44
VNorth Queen Anne
p45
sa(dp46
Vlong_name
p47
VSeattle
p48
sVtypes
p49
(lp50
Vlocality
p51
aVpolitical
p52
asVshort_name
p53
VSeattle
p54
sa(dp55
Vlong_name
p56
VKing County
p57
sVtypes
p58
(lp59
Vadministrative_area_level_2
p60
aVpolitical
p61
asVshort_name
p62
VKing County
p63
sa(dp64
Vlong_name
p65
VWashington
p66
sVtypes
p67
(lp68
Vadministrative_area_level_1
p69
aVpolitical
p70
asVshort_name
p71
VWA
p72
sa(dp73
Vlong_name
p74
VUnited States
p75
sVtypes
p76
(lp77
Vcountry
p78
aVpolitical
p79
asVshort_name
p80
VUS
p81
sa(dp82
Vlong_name
p83
V98119
p84
sVtypes
p85
(lp86
Vpostal_code
p87
asVshort_name
p88
V98119
p89
sasVplace_id
p90
VChIJRxbjI-0VkFQRozTdvlEeUMs
p91
sVformatted_address
p92
V2412 7th Ave W, Seattle, WA 98119, USA
p93
sVtypes
p94
(lp95
Velectronics_store
p96
aVestablishment
p97
aVhome_goods_store
p98
aVpoint_of_interest
p99
aVstore
p100
as.