(dp0
Vgeometry
p1
(dp2
Vlocation
p3
(dp4
Vlat
p5
F37.133872
sVlng
p6
F-84.09122099999999
ssVviewport
p7
(dp8
Vnortheast
p9
(dp10
Vlat
p11
F37.1352209802915
sVlng
p12
F-84.08987201970848
ssVsouthwest
p13
(dp14
Vlat
p15
F37.1325230197085
sVlng
p16
F-84.0925699802915
sssVlocation_type
p17
VROOFTOP
p18
ssVaddress_components
p19
(lp20
(dp21
Vlong_name
p22
V911
p23
sVtypes
p24
(lp25
Vstreet_number
p26
asVshort_name
p27
V911
p28
sa(dp29
Vlong_name
p30
VNorth Main Street
p31
sVtypes
p32
(lp33
Vroute
p34
asVshort_name
p35
VN Main St
p36
sa(dp37
Vlong_name
p38
VLondon
p39
sVtypes
p40
(lp41
Vlocality
p42
aVpolitical
p43
asVshort_name
p44
VLondon
p45
sa(dp46
Vlong_name
p47
VLaurel County
p48
sVtypes
p49
(lp50
Vadministrative_area_level_2
p51
aVpolitical
p52
asVshort_name
p53
VLaurel County
p54
sa(dp55
Vlong_name
p56
VKentucky
p57
sVtypes
p58
(lp59
Vadministrative_area_level_1
p60
aVpolitical
p61
asVshort_name
p62
VKY
p63
sa(dp64
Vlong_name
p65
VUnited States
p66
sVtypes
p67
(lp68
Vcountry
p69
aVpolitical
p70
asVshort_name
p71
VUS
p72
sa(dp73
Vlong_name
p74
V40741
p75
sVtypes
p76
(lp77
Vpostal_code
p78
asVshort_name
p79
V40741
p80
sa(dp81
Vlong_name
p82
V1367
p83
sVtypes
p84
(lp85
Vpostal_code_suffix
p86
asVshort_name
p87
V1367
p88
sasVplace_id
p89
VChIJf2B86UHNXIgRbXZ-PXKoKTg
p90
sVformatted_address
p91
V911 N Main St, London, KY 40741, USA
p92
sVtypes
p93
(lp94
Vestablishment
p95
aVpoint_of_interest
p96
as.