(dp0
Vgeometry
p1
(dp2
Vlocation
p3
(dp4
Vlat
p5
F42.431218
sVlng
p6
F-71.04648
ssVviewport
p7
(dp8
Vnortheast
p9
(dp10
Vlat
p11
F42.4325669802915
sVlng
p12
F-71.0451310197085
ssVsouthwest
p13
(dp14
Vlat
p15
F42.42986901970851
sVlng
p16
F-71.04782898029151
sssVlocation_type
p17
VROOFTOP
p18
ssVaddress_components
p19
(lp20
(dp21
Vlong_name
p22
V67
p23
sVtypes
p24
(lp25
Vstreet_number
p26
asVshort_name
p27
V67
p28
sa(dp29
Vlong_name
p30
VMaplewood Street
p31
sVtypes
p32
(lp33
Vroute
p34
asVshort_name
p35
VMaplewood St
p36
sa(dp37
Vlong_name
p38
VMalden
p39
sVtypes
p40
(lp41
Vlocality
p42
aVpolitical
p43
asVshort_name
p44
VMalden
p45
sa(dp46
Vlong_name
p47
VMiddlesex County
p48
sVtypes
p49
(lp50
Vadministrative_area_level_2
p51
aVpolitical
p52
asVshort_name
p53
VMiddlesex County
p54
sa(dp55
Vlong_name
p56
VMassachusetts
p57
sVtypes
p58
(lp59
Vadministrative_area_level_1
p60
aVpolitical
p61
asVshort_name
p62
VMA
p63
sa(dp64
Vlong_name
p65
VUnited States
p66
sVtypes
p67
(lp68
Vcountry
p69
aVpolitical
p70
asVshort_name
p71
VUS
p72
sa(dp73
Vlong_name
p74
V02148
p75
sVtypes
p76
(lp77
Vpostal_code
p78
asVshort_name
p79
V02148
p80
sa(dp81
Vlong_name
p82
V4320
p83
sVtypes
p84
(lp85
Vpostal_code_suffix
p86
asVshort_name
p87
V4320
p88
sasVplace_id
p89
VChIJv4DPfixy44kR7INX9yLMYyE
p90
sVformatted_address
p91
V67 Maplewood St, Malden, MA 02148, USA
p92
sVtypes
p93
(lp94
Vestablishment
p95
aVpoint_of_interest
p96
as.