(dp0
Vgeometry
p1
(dp2
Vlocation
p3
(dp4
Vlat
p5
F51.5143852
sVlng
p6
F-0.1369837
ssVviewport
p7
(dp8
Vnortheast
p9
(dp10
Vlat
p11
F51.5157341802915
sVlng
p12
F-0.135634719708498
ssVsouthwest
p13
(dp14
Vlat
p15
F51.5130362197085
sVlng
p16
F-0.138332680291502
sssVlocation_type
p17
VROOFTOP
p18
ssVaddress_components
p19
(lp20
(dp21
Vlong_name
p22
V51
p23
sVtypes
p24
(lp25
Vstreet_number
p26
asVshort_name
p27
V51
p28
sa(dp29
Vlong_name
p30
VPoland Street
p31
sVtypes
p32
(lp33
Vroute
p34
asVshort_name
p35
VPoland St
p36
sa(dp37
Vlong_name
p38
VSoho
p39
sVtypes
p40
(lp41
Vneighborhood
p42
aVpolitical
p43
asVshort_name
p44
VSoho
p45
sa(dp46
Vlong_name
p47
VLondon
p48
sVtypes
p49
(lp50
Vpostal_town
p51
asVshort_name
p52
VLondon
p53
sa(dp54
Vlong_name
p55
VGreater London
p56
sVtypes
p57
(lp58
Vadministrative_area_level_2
p59
aVpolitical
p60
asVshort_name
p61
VGreater London
p62
sa(dp63
Vlong_name
p64
VEngland
p65
sVtypes
p66
(lp67
Vadministrative_area_level_1
p68
aVpolitical
p69
asVshort_name
p70
VEngland
p71
sa(dp72
Vlong_name
p73
VUnited Kingdom
p74
sVtypes
p75
(lp76
Vcountry
p77
aVpolitical
p78
asVshort_name
p79
VGB
p80
sa(dp81
Vlong_name
p82
VW1F 7LZ
p83
sVtypes
p84
(lp85
Vpostal_code
p86
asVshort_name
p87
VW1F 7LZ
p88
sasVplace_id
p89
VChIJxUcYxtQEdkgRj2kFnjroRTk
p90
sVformatted_address
p91
V51 Poland St, Soho, London W1F 7LZ, UK
p92
sVtypes
p93
(lp94
Velectronics_store
p95
aVestablishment
p96
aVhome_goods_store
p97
aVpoint_of_interest
p98
aVstore
p99
as.