(dp0
Vgeometry
p1
(dp2
Vlocation_type
p3
VAPPROXIMATE
p4
sVbounds
p5
(dp6
Vnortheast
p7
(dp8
Vlat
p9
F50.8735837
sVlng
p10
F-0.03626
ssVsouthwest
p11
(dp12
Vlat
p13
F50.8012522
sVlng
p14
F-0.1761194
sssVviewport
p15
(dp16
Vnortheast
p17
(dp18
Vlat
p19
F50.8735837
sVlng
p20
F-0.03626
ssVsouthwest
p21
(dp22
Vlat
p23
F50.8012522
sVlng
p24
F-0.1761194
sssVlocation
p25
(dp26
Vlat
p27
F50.82253000000001
sVlng
p28
F-0.137163
sssVformatted_address
p29
VBrighton, UK
p30
sVplace_id
p31
VChIJZ0Ep9gmFdUgR-Q59cnqvxpw
p32
sVaddress_components
p33
(lp34
(dp35
Vlong_name
p36
VBrighton
p37
sVtypes
p38
(lp39
Vlocality
p40
aVpolitical
p41
asVshort_name
p42
VBrighton
p43
sa(dp44
Vlong_name
p45
VThe City of Brighton and Hove
p46
sVtypes
p47
(lp48
Vadministrative_area_level_2
p49
aVpolitical
p50
asVshort_name
p51
VThe City of Brighton and Hove
p52
sa(dp53
Vlong_name
p54
VEngland
p55
sVtypes
p56
(lp57
Vadministrative_area_level_1
p58
aVpolitical
p59
asVshort_name
p60
VEngland
p61
sa(dp62
Vlong_name
p63
VUnited Kingdom
p64
sVtypes
p65
(lp66
Vcountry
p67
aVpolitical
p68
asVshort_name
p69
VGB
p70
sasVpartial_match
p71
I01
sVtypes
p72
(lp73
Vlocality
p74
aVpolitical
p75
as.