(dp0
Vgeometry
p1
(dp2
Vlocation
p3
(dp4
Vlat
p5
F52.209474
sVlng
p6
F5.2805775
ssVviewport
p7
(dp8
Vnortheast
p9
(dp10
Vlat
p11
F52.2108229802915
sVlng
p12
F5.281926480291502
ssVsouthwest
p13
(dp14
Vlat
p15
F52.2081250197085
sVlng
p16
F5.279228519708497
sssVlocation_type
p17
VROOFTOP
p18
ssVaddress_components
p19
(lp20
(dp21
Vlong_name
p22
V4
p23
sVtypes
p24
(lp25
Vstreet_number
p26
asVshort_name
p27
g23
sa(dp28
Vlong_name
p29
VGerrit van der Veenlaan
p30
sVtypes
p31
(lp32
Vroute
p33
asVshort_name
p34
VGerrit van der Veenlaan
p35
sa(dp36
Vlong_name
p37
VBaarn
p38
sVtypes
p39
(lp40
Vlocality
p41
aVpolitical
p42
asVshort_name
p43
VBaarn
p44
sa(dp45
Vlong_name
p46
VBaarn
p47
sVtypes
p48
(lp49
Vadministrative_area_level_2
p50
aVpolitical
p51
asVshort_name
p52
VBaarn
p53
sa(dp54
Vlong_name
p55
VUtrecht
p56
sVtypes
p57
(lp58
Vadministrative_area_level_1
p59
aVpolitical
p60
asVshort_name
p61
VUT
p62
sa(dp63
Vlong_name
p64
VNetherlands
p65
sVtypes
p66
(lp67
Vcountry
p68
aVpolitical
p69
asVshort_name
p70
VNL
p71
sa(dp72
Vlong_name
p73
V3743 DN
p74
sVtypes
p75
(lp76
Vpostal_code
p77
asVshort_name
p78
V3743 DN
p79
sasVplace_id
p80
VChIJJ_-fUDBAxkcRM8_4rCa7MQY
p81
sVformatted_address
p82
VGerrit van der Veenlaan 4, 3743 DN Baarn, Netherlands
p83
sVtypes
p84
(lp85
Vestablishment
p86
aVpoint_of_interest
p87
as.