(dp0
Vgeometry
p1
(dp2
Vlocation
p3
(dp4
Vlat
p5
F43.6387623
sVlng
p6
F-79.42073660000001
ssVviewport
p7
(dp8
Vnortheast
p9
(dp10
Vlat
p11
F43.6401112802915
sVlng
p12
F-79.41938761970852
ssVsouthwest
p13
(dp14
Vlat
p15
F43.6374133197085
sVlng
p16
F-79.42208558029152
sssVlocation_type
p17
VROOFTOP
p18
ssVaddress_components
p19
(lp20
(dp21
Vlong_name
p22
V80
p23
sVtypes
p24
(lp25
Vstreet_number
p26
asVshort_name
p27
V80
p28
sa(dp29
Vlong_name
p30
VAtlantic Avenue
p31
sVtypes
p32
(lp33
Vroute
p34
asVshort_name
p35
VAtlantic Ave
p36
sa(dp37
Vlong_name
p38
VToronto
p39
sVtypes
p40
(lp41
Vlocality
p42
aVpolitical
p43
asVshort_name
p44
VToronto
p45
sa(dp46
Vlong_name
p47
VOntario
p48
sVtypes
p49
(lp50
Vadministrative_area_level_1
p51
aVpolitical
p52
asVshort_name
p53
VON
p54
sa(dp55
Vlong_name
p56
VCanada
p57
sVtypes
p58
(lp59
Vcountry
p60
aVpolitical
p61
asVshort_name
p62
VCA
p63
sasVplace_id
p64
VChIJPw0UTAE1K4gRbYl8oA_OZGo
p65
sVformatted_address
p66
V1X9, 80 Atlantic Ave, Toronto, ON, Canada
p67
sVtypes
p68
(lp69
Vestablishment
p70
aVpoint_of_interest
p71
as.