(dp0
Vgeometry
p1
(dp2
Vlocation
p3
(dp4
Vlat
p5
F52.63086999999999
sVlng
p6
F1.289674
ssVviewport
p7
(dp8
Vnortheast
p9
(dp10
Vlat
p11
F52.63221898029149
sVlng
p12
F1.291022980291502
ssVsouthwest
p13
(dp14
Vlat
p15
F52.6295210197085
sVlng
p16
F1.288325019708498
sssVlocation_type
p17
VROOFTOP
p18
ssVaddress_components
p19
(lp20
(dp21
Vlong_name
p22
V28
p23
sVtypes
p24
(lp25
Vstreet_number
p26
asVshort_name
p27
V28
p28
sa(dp29
Vlong_name
p30
VSaint Benedicts Street
p31
sVtypes
p32
(lp33
Vroute
p34
asVshort_name
p35
VSt Benedicts St
p36
sa(dp37
Vlong_name
p38
VNorwich
p39
sVtypes
p40
(lp41
Vpostal_town
p42
asVshort_name
p43
VNorwich
p44
sa(dp45
Vlong_name
p46
VNorfolk
p47
sVtypes
p48
(lp49
Vadministrative_area_level_2
p50
aVpolitical
p51
asVshort_name
p52
VNorfolk
p53
sa(dp54
Vlong_name
p55
VEngland
p56
sVtypes
p57
(lp58
Vadministrative_area_level_1
p59
aVpolitical
p60
asVshort_name
p61
VEngland
p62
sa(dp63
Vlong_name
p64
VUnited Kingdom
p65
sVtypes
p66
(lp67
Vcountry
p68
aVpolitical
p69
asVshort_name
p70
VGB
p71
sa(dp72
Vlong_name
p73
VNR2 4AQ
p74
sVtypes
p75
(lp76
Vpostal_code
p77
asVshort_name
p78
VNR2 4AQ
p79
sasVplace_id
p80
VChIJeQGeYuDj2UcR3xx6G33r3Ec
p81
sVformatted_address
p82
V28 St Benedicts St, Norwich NR2 4AQ, UK
p83
sVtypes
p84
(lp85
Velectronics_store
p86
aVestablishment
p87
aVhome_goods_store
p88
aVpoint_of_interest
p89
aVstore
p90
as.