(dp0
Vgeometry
p1
(dp2
Vlocation
p3
(dp4
Vlat
p5
F41.88800699999999
sVlng
p6
F-87.66576789999999
ssVviewport
p7
(dp8
Vnortheast
p9
(dp10
Vlat
p11
F41.8893559802915
sVlng
p12
F-87.66441891970848
ssVsouthwest
p13
(dp14
Vlat
p15
F41.8866580197085
sVlng
p16
F-87.6671168802915
sssVlocation_type
p17
VROOFTOP
p18
ssVaddress_components
p19
(lp20
(dp21
Vlong_name
p22
V504
p23
sVtypes
p24
(lp25
Vsubpremise
p26
asVshort_name
p27
V504
p28
sa(dp29
Vlong_name
p30
V346
p31
sVtypes
p32
(lp33
Vstreet_number
p34
asVshort_name
p35
V346
p36
sa(dp37
Vlong_name
p38
VNorth Justine Street
p39
sVtypes
p40
(lp41
Vroute
p42
asVshort_name
p43
VN Justine St
p44
sa(dp45
Vlong_name
p46
VNear West Side
p47
sVtypes
p48
(lp49
Vneighborhood
p50
aVpolitical
p51
asVshort_name
p52
VNear West Side
p53
sa(dp54
Vlong_name
p55
VChicago
p56
sVtypes
p57
(lp58
Vlocality
p59
aVpolitical
p60
asVshort_name
p61
VChicago
p62
sa(dp63
Vlong_name
p64
VCook County
p65
sVtypes
p66
(lp67
Vadministrative_area_level_2
p68
aVpolitical
p69
asVshort_name
p70
VCook County
p71
sa(dp72
Vlong_name
p73
VIllinois
p74
sVtypes
p75
(lp76
Vadministrative_area_level_1
p77
aVpolitical
p78
asVshort_name
p79
VIL
p80
sa(dp81
Vlong_name
p82
VUnited States
p83
sVtypes
p84
(lp85
Vcountry
p86
aVpolitical
p87
asVshort_name
p88
VUS
p89
sa(dp90
Vlong_name
p91
V60607
p92
sVtypes
p93
(lp94
Vpostal_code
p95
asVshort_name
p96
V60607
p97
sa(dp98
Vlong_name
p99
V1021
p100
sVtypes
p101
(lp102
Vpostal_code_suffix
p103
asVshort_name
p104
V1021
p105
sasVplace_id
p106
VChIJZ9Y5ry8tDogRd6O8e26_UD8
p107
sVformatted_address
p108
V346 N Justine St #504, Chicago, IL 60607, USA
p109
sVtypes
p110
(lp111
Vestablishment
p112
aVpoint_of_interest
p113
as.