(dp0
Vgeometry
p1
(dp2
Vlocation
p3
(dp4
Vlat
p5
F46.9488519
sVlng
p6
F7.447083399999999
ssVviewport
p7
(dp8
Vnortheast
p9
(dp10
Vlat
p11
F46.9502008802915
sVlng
p12
F7.448432380291502
ssVsouthwest
p13
(dp14
Vlat
p15
F46.9475029197085
sVlng
p16
F7.445734419708497
sssVlocation_type
p17
VROOFTOP
p18
ssVaddress_components
p19
(lp20
(dp21
Vlong_name
p22
V18
p23
sVtypes
p24
(lp25
Vstreet_number
p26
asVshort_name
p27
V18
p28
sa(dp29
Vlong_name
p30
VKornhausplatz
p31
sVtypes
p32
(lp33
Vroute
p34
asVshort_name
p35
VKornhauspl.
p36
sa(dp37
Vlong_name
p38
VInnere Stadt
p39
sVtypes
p40
(lp41
Vpolitical
p42
aVsublocality
p43
aVsublocality_level_1
p44
asVshort_name
p45
VInnere Stadt
p46
sa(dp47
Vlong_name
p48
VBern
p49
sVtypes
p50
(lp51
Vlocality
p52
aVpolitical
p53
asVshort_name
p54
VBern
p55
sa(dp56
Vlong_name
p57
VBern
p58
sVtypes
p59
(lp60
Vadministrative_area_level_2
p61
aVpolitical
p62
asVshort_name
p63
VBern
p64
sa(dp65
Vlong_name
p66
VBern
p67
sVtypes
p68
(lp69
Vadministrative_area_level_1
p70
aVpolitical
p71
asVshort_name
p72
VBE
p73
sa(dp74
Vlong_name
p75
VSwitzerland
p76
sVtypes
p77
(lp78
Vcountry
p79
aVpolitical
p80
asVshort_name
p81
VCH
p82
sa(dp83
Vlong_name
p84
V3011
p85
sVtypes
p86
(lp87
Vpostal_code
p88
asVshort_name
p89
V3011
p90
sasVplace_id
p91
VChIJ-8l7QcE5jkcRUog3oEUIb_A
p92
sVformatted_address
p93
VKornhauspl. 18, 3011 Bern, Switzerland
p94
sVtypes
p95
(lp96
Vchurch
p97
aVestablishment
p98
aVplace_of_worship
p99
aVpoint_of_interest
p100
as.