(dp0
Vgeometry
p1
(dp2
Vlocation
p3
(dp4
Vlat
p5
F51.2194711
sVlng
p6
F3.2204399
ssVviewport
p7
(dp8
Vnortheast
p9
(dp10
Vlat
p11
F51.2208200802915
sVlng
p12
F3.221788880291502
ssVsouthwest
p13
(dp14
Vlat
p15
F51.2181221197085
sVlng
p16
F3.219090919708498
sssVlocation_type
p17
VROOFTOP
p18
ssVaddress_components
p19
(lp20
(dp21
Vlong_name
p22
V108
p23
sVtypes
p24
(lp25
Vstreet_number
p26
asVshort_name
p27
V108
p28
sa(dp29
Vlong_name
p30
VWerfstraat
p31
sVtypes
p32
(lp33
Vroute
p34
asVshort_name
p35
VWerfstraat
p36
sa(dp37
Vlong_name
p38
VBrugge
p39
sVtypes
p40
(lp41
Vlocality
p42
aVpolitical
p43
asVshort_name
p44
VBrugge
p45
sa(dp46
Vlong_name
p47
VWest-Vlaanderen
p48
sVtypes
p49
(lp50
Vadministrative_area_level_2
p51
aVpolitical
p52
asVshort_name
p53
VWV
p54
sa(dp55
Vlong_name
p56
VVlaanderen
p57
sVtypes
p58
(lp59
Vadministrative_area_level_1
p60
aVpolitical
p61
asVshort_name
p62
VVlaanderen
p63
sa(dp64
Vlong_name
p65
VBelgium
p66
sVtypes
p67
(lp68
Vcountry
p69
aVpolitical
p70
asVshort_name
p71
VBE
p72
sa(dp73
Vlong_name
p74
V8000
p75
sVtypes
p76
(lp77
Vpostal_code
p78
asVshort_name
p79
V8000
p80
sasVplace_id
p81
VChIJGVNOpCxXw0cRyO2dh8asPCI
p82
sVformatted_address
p83
VWerfstraat 108, 8000 Brugge, Belgium
p84
sVtypes
p85
(lp86
Vestablishment
p87
aVpoint_of_interest
p88
as.