(dp0
Vgeometry
p1
(dp2
Vlocation
p3
(dp4
Vlat
p5
F49.89607789999999
sVlng
p6
F-97.1442039
ssVviewport
p7
(dp8
Vnortheast
p9
(dp10
Vlat
p11
F49.8974268802915
sVlng
p12
F-97.1428549197085
ssVsouthwest
p13
(dp14
Vlat
p15
F49.8947289197085
sVlng
p16
F-97.1455528802915
sssVlocation_type
p17
VROOFTOP
p18
ssVaddress_components
p19
(lp20
(dp21
Vlong_name
p22
V376
p23
sVtypes
p24
(lp25
Vstreet_number
p26
asVshort_name
p27
V376
p28
sa(dp29
Vlong_name
p30
VDonald Street
p31
sVtypes
p32
(lp33
Vroute
p34
asVshort_name
p35
VDonald St
p36
sa(dp37
Vlong_name
p38
VCentral Park
p39
sVtypes
p40
(lp41
Vneighborhood
p42
aVpolitical
p43
asVshort_name
p44
VCentral Park
p45
sa(dp46
Vlong_name
p47
VWinnipeg
p48
sVtypes
p49
(lp50
Vlocality
p51
aVpolitical
p52
asVshort_name
p53
VWinnipeg
p54
sa(dp55
Vlong_name
p56
VDivision No. 11
p57
sVtypes
p58
(lp59
Vadministrative_area_level_2
p60
aVpolitical
p61
asVshort_name
p62
VDivision No. 11
p63
sa(dp64
Vlong_name
p65
VManitoba
p66
sVtypes
p67
(lp68
Vadministrative_area_level_1
p69
aVpolitical
p70
asVshort_name
p71
VMB
p72
sa(dp73
Vlong_name
p74
VCanada
p75
sVtypes
p76
(lp77
Vcountry
p78
aVpolitical
p79
asVshort_name
p80
VCA
p81
sa(dp82
Vlong_name
p83
VR3B 2J2
p84
sVtypes
p85
(lp86
Vpostal_code
p87
asVshort_name
p88
VR3B 2J2
p89
sasVplace_id
p90
VChIJF4pcNllx6lIRhAtWEzsFG-w
p91
sVformatted_address
p92
V376 Donald St, Winnipeg, MB R3B 2J2, Canada
p93
sVtypes
p94
(lp95
Vestablishment
p96
aVpoint_of_interest
p97
as.