(dp0
Vgeometry
p1
(dp2
Vlocation
p3
(dp4
Vlat
p5
F51.5560108
sVlng
p6
F-0.1483198
ssVviewport
p7
(dp8
Vnortheast
p9
(dp10
Vlat
p11
F51.55735978029149
sVlng
p12
F-0.146970819708498
ssVsouthwest
p13
(dp14
Vlat
p15
F51.55466181970849
sVlng
p16
F-0.149668780291502
sssVlocation_type
p17
VROOFTOP
p18
ssVaddress_components
p19
(lp20
(dp21
Vlong_name
p22
VSpectrum House
p23
sVtypes
p24
(lp25
Vpremise
p26
asVshort_name
p27
VSpectrum House
p28
sa(dp29
Vlong_name
p30
V32-34
p31
sVtypes
p32
(lp33
Vstreet_number
p34
asVshort_name
p35
V32-34
p36
sa(dp37
Vlong_name
p38
VGordon House Road
p39
sVtypes
p40
(lp41
Vroute
p42
asVshort_name
p43
VGordon House Rd
p44
sa(dp45
Vlong_name
p46
VKentish Town
p47
sVtypes
p48
(lp49
Vneighborhood
p50
aVpolitical
p51
asVshort_name
p52
VKentish Town
p53
sa(dp54
Vlong_name
p55
VLondon
p56
sVtypes
p57
(lp58
Vpostal_town
p59
asVshort_name
p60
VLondon
p61
sa(dp62
Vlong_name
p63
VGreater London
p64
sVtypes
p65
(lp66
Vadministrative_area_level_2
p67
aVpolitical
p68
asVshort_name
p69
VGreater London
p70
sa(dp71
Vlong_name
p72
VEngland
p73
sVtypes
p74
(lp75
Vadministrative_area_level_1
p76
aVpolitical
p77
asVshort_name
p78
VEngland
p79
sa(dp80
Vlong_name
p81
VUnited Kingdom
p82
sVtypes
p83
(lp84
Vcountry
p85
aVpolitical
p86
asVshort_name
p87
VGB
p88
sa(dp89
Vlong_name
p90
VNW5 1LP
p91
sVtypes
p92
(lp93
Vpostal_code
p94
asVshort_name
p95
VNW5 1LP
p96
sasVplace_id
p97
VChIJJRjavfgadkgRjMZctj09QQE
p98
sVformatted_address
p99
VSpectrum House, 32-34 Gordon House Rd, Kentish Town, London NW5 1LP, UK
p100
sVtypes
p101
(lp102
Vestablishment
p103
aVpoint_of_interest
p104
as.