(dp0
Vgeometry
p1
(dp2
Vlocation
p3
(dp4
Vlat
p5
F51.5030491
sVlng
p6
F7.4967238
ssVviewport
p7
(dp8
Vnortheast
p9
(dp10
Vlat
p11
F51.5043980802915
sVlng
p12
F7.498072780291502
ssVsouthwest
p13
(dp14
Vlat
p15
F51.5017001197085
sVlng
p16
F7.495374819708498
sssVlocation_type
p17
VROOFTOP
p18
ssVformatted_address
p19
VWestfalendamm 87, 44141 Dortmund, Germany
p20
sVplace_id
p21
VChIJ62YpFxQXuUcRdyezTAIoS2Y
p22
sVaddress_components
p23
(lp24
(dp25
Vlong_name
p26
V87
p27
sVtypes
p28
(lp29
Vstreet_number
p30
asVshort_name
p31
V87
p32
sa(dp33
Vlong_name
p34
VWestfalendamm
p35
sVtypes
p36
(lp37
Vroute
p38
asVshort_name
p39
VWestfalendamm
p40
sa(dp41
Vlong_name
p42
VInnenstadt-Ost
p43
sVtypes
p44
(lp45
Vpolitical
p46
aVsublocality
p47
aVsublocality_level_1
p48
asVshort_name
p49
VInnenstadt-Ost
p50
sa(dp51
Vlong_name
p52
VDortmund
p53
sVtypes
p54
(lp55
Vlocality
p56
aVpolitical
p57
asVshort_name
p58
VDO
p59
sa(dp60
Vlong_name
p61
VArnsberg
p62
sVtypes
p63
(lp64
Vadministrative_area_level_2
p65
aVpolitical
p66
asVshort_name
p67
VArnsberg
p68
sa(dp69
Vlong_name
p70
VNordrhein-Westfalen
p71
sVtypes
p72
(lp73
Vadministrative_area_level_1
p74
aVpolitical
p75
asVshort_name
p76
VNRW
p77
sa(dp78
Vlong_name
p79
VGermany
p80
sVtypes
p81
(lp82
Vcountry
p83
aVpolitical
p84
asVshort_name
p85
VDE
p86
sa(dp87
Vlong_name
p88
V44141
p89
sVtypes
p90
(lp91
Vpostal_code
p92
asVshort_name
p93
V44141
p94
sasVpartial_match
p95
I01
sVtypes
p96
(lp97
Vestablishment
p98
aVpoint_of_interest
p99
as.