(dp0
Vgeometry
p1
(dp2
Vlocation_type
p3
VAPPROXIMATE
p4
sVbounds
p5
(dp6
Vnortheast
p7
(dp8
Vlat
p9
F40.78260179999999
sVlng
p10
F-73.9022182
ssVsouthwest
p11
(dp12
Vlat
p13
F40.7529475
sVlng
p14
F-73.9447342
sssVviewport
p15
(dp16
Vnortheast
p17
(dp18
Vlat
p19
F40.78260179999999
sVlng
p20
F-73.9022182
ssVsouthwest
p21
(dp22
Vlat
p23
F40.7529475
sVlng
p24
F-73.9447342
sssVlocation
p25
(dp26
Vlat
p27
F40.7643574
sVlng
p28
F-73.92346189999999
sssVformatted_address
p29
VAstoria, Queens, NY, USA
p30
sVplace_id
p31
VChIJU6W15zZfwokRDhGErMSvCpw
p32
sVaddress_components
p33
(lp34
(dp35
Vlong_name
p36
VAstoria
p37
sVtypes
p38
(lp39
Vneighborhood
p40
aVpolitical
p41
asVshort_name
p42
VAstoria
p43
sa(dp44
Vlong_name
p45
VQueens
p46
sVtypes
p47
(lp48
Vpolitical
p49
aVsublocality
p50
aVsublocality_level_1
p51
asVshort_name
p52
VQueens
p53
sa(dp54
Vlong_name
p55
VQueens County
p56
sVtypes
p57
(lp58
Vadministrative_area_level_2
p59
aVpolitical
p60
asVshort_name
p61
VQueens County
p62
sa(dp63
Vlong_name
p64
VNew York
p65
sVtypes
p66
(lp67
Vadministrative_area_level_1
p68
aVpolitical
p69
asVshort_name
p70
VNY
p71
sa(dp72
Vlong_name
p73
VUnited States
p74
sVtypes
p75
(lp76
Vcountry
p77
aVpolitical
p78
asVshort_name
p79
VUS
p80
sasVpartial_match
p81
I01
sVtypes
p82
(lp83
Vneighborhood
p84
aVpolitical
p85
as.