(dp0
Vgeometry
p1
(dp2
Vlocation_type
p3
VAPPROXIMATE
p4
sVbounds
p5
(dp6
Vnortheast
p7
(dp8
Vlat
p9
F38.889558
sVlng
p10
F-77.21808879999999
ssVsouthwest
p11
(dp12
Vlat
p13
F38.86493
sVlng
p14
F-77.274226
sssVviewport
p15
(dp16
Vnortheast
p17
(dp18
Vlat
p19
F38.889558
sVlng
p20
F-77.21808879999999
ssVsouthwest
p21
(dp22
Vlat
p23
F38.86493
sVlng
p24
F-77.274226
sssVlocation
p25
(dp26
Vlat
p27
F38.8742785
sVlng
p28
F-77.2269262
sssVformatted_address
p29
VMerrifield, VA, USA
p30
sVplace_id
p31
VChIJSdYfK4JLtokRcJsnNm4Nbd4
p32
sVaddress_components
p33
(lp34
(dp35
Vlong_name
p36
VMerrifield
p37
sVtypes
p38
(lp39
Vlocality
p40
aVpolitical
p41
asVshort_name
p42
VMerrifield
p43
sa(dp44
Vlong_name
p45
VProvidence
p46
sVtypes
p47
(lp48
Vadministrative_area_level_3
p49
aVpolitical
p50
asVshort_name
p51
VProvidence
p52
sa(dp53
Vlong_name
p54
VFairfax County
p55
sVtypes
p56
(lp57
Vadministrative_area_level_2
p58
aVpolitical
p59
asVshort_name
p60
VFairfax County
p61
sa(dp62
Vlong_name
p63
VVirginia
p64
sVtypes
p65
(lp66
Vadministrative_area_level_1
p67
aVpolitical
p68
asVshort_name
p69
VVA
p70
sa(dp71
Vlong_name
p72
VUnited States
p73
sVtypes
p74
(lp75
Vcountry
p76
aVpolitical
p77
asVshort_name
p78
VUS
p79
sasVpartial_match
p80
I01
sVtypes
p81
(lp82
Vlocality
p83
aVpolitical
p84
as.