(dp0
Vgeometry
p1
(dp2
Vlocation
p3
(dp4
Vlat
p5
F34.025142
sVlng
p6
F-118.476844
ssVviewport
p7
(dp8
Vnortheast
p9
(dp10
Vlat
p11
F34.0264909802915
sVlng
p12
F-118.4754950197085
ssVsouthwest
p13
(dp14
Vlat
p15
F34.0237930197085
sVlng
p16
F-118.4781929802915
sssVlocation_type
p17
VROOFTOP
p18
ssVaddress_components
p19
(lp20
(dp21
Vlong_name
p22
VC
p23
sVtypes
p24
(lp25
Vsubpremise
p26
asVshort_name
p27
g23
sa(dp28
Vlong_name
p29
V1920
p30
sVtypes
p31
(lp32
Vstreet_number
p33
asVshort_name
p34
V1920
p35
sa(dp36
Vlong_name
p37
VColorado Avenue
p38
sVtypes
p39
(lp40
Vroute
p41
asVshort_name
p42
VColorado Ave
p43
sa(dp44
Vlong_name
p45
VSanta Monica
p46
sVtypes
p47
(lp48
Vlocality
p49
aVpolitical
p50
asVshort_name
p51
VSanta Monica
p52
sa(dp53
Vlong_name
p54
VLos Angeles County
p55
sVtypes
p56
(lp57
Vadministrative_area_level_2
p58
aVpolitical
p59
asVshort_name
p60
VLos Angeles County
p61
sa(dp62
Vlong_name
p63
VCalifornia
p64
sVtypes
p65
(lp66
Vadministrative_area_level_1
p67
aVpolitical
p68
asVshort_name
p69
VCA
p70
sa(dp71
Vlong_name
p72
VUnited States
p73
sVtypes
p74
(lp75
Vcountry
p76
aVpolitical
p77
asVshort_name
p78
VUS
p79
sa(dp80
Vlong_name
p81
V90404
p82
sVtypes
p83
(lp84
Vpostal_code
p85
asVshort_name
p86
V90404
p87
sasVplace_id
p88
VChIJc04cMje7woAR_xzIDPod4tI
p89
sVformatted_address
p90
V1920 Colorado Ave C, Santa Monica, CA 90404, USA
p91
sVtypes
p92
(lp93
Vestablishment
p94
aVfood
p95
aVpoint_of_interest
p96
as.