(dp0
Vgeometry
p1
(dp2
Vlocation
p3
(dp4
Vlat
p5
F40.8503678
sVlng
p6
F-73.4153474
ssVviewport
p7
(dp8
Vnortheast
p9
(dp10
Vlat
p11
F40.8517167802915
sVlng
p12
F-73.41399841970849
ssVsouthwest
p13
(dp14
Vlat
p15
F40.8490188197085
sVlng
p16
F-73.41669638029151
sssVlocation_type
p17
VROOFTOP
p18
ssVformatted_address
p19
V40 Railroad St, Huntington Station, NY 11746, USA
p20
sVplace_id
p21
VChIJc3C2PvUo6IkRn76hoSrhQRs
p22
sVaddress_components
p23
(lp24
(dp25
Vlong_name
p26
V40
p27
sVtypes
p28
(lp29
Vstreet_number
p30
asVshort_name
p31
V40
p32
sa(dp33
Vlong_name
p34
VRailroad Street
p35
sVtypes
p36
(lp37
Vroute
p38
asVshort_name
p39
VRailroad St
p40
sa(dp41
Vlong_name
p42
VHuntington Station
p43
sVtypes
p44
(lp45
Vlocality
p46
aVpolitical
p47
asVshort_name
p48
VHuntington Station
p49
sa(dp50
Vlong_name
p51
VHuntington
p52
sVtypes
p53
(lp54
Vadministrative_area_level_3
p55
aVpolitical
p56
asVshort_name
p57
VHuntington
p58
sa(dp59
Vlong_name
p60
VSuffolk County
p61
sVtypes
p62
(lp63
Vadministrative_area_level_2
p64
aVpolitical
p65
asVshort_name
p66
VSuffolk County
p67
sa(dp68
Vlong_name
p69
VNew York
p70
sVtypes
p71
(lp72
Vadministrative_area_level_1
p73
aVpolitical
p74
asVshort_name
p75
VNY
p76
sa(dp77
Vlong_name
p78
VUnited States
p79
sVtypes
p80
(lp81
Vcountry
p82
aVpolitical
p83
asVshort_name
p84
VUS
p85
sa(dp86
Vlong_name
p87
V11746
p88
sVtypes
p89
(lp90
Vpostal_code
p91
asVshort_name
p92
V11746
p93
sa(dp94
Vlong_name
p95
V1231
p96
sVtypes
p97
(lp98
Vpostal_code_suffix
p99
asVshort_name
p100
V1231
p101
sasVpartial_match
p102
I01
sVtypes
p103
(lp104
Vestablishment
p105
aVmoving_company
p106
aVpoint_of_interest
p107
as.