(dp0
Vgeometry
p1
(dp2
Vlocation
p3
(dp4
Vlat
p5
F53.15192039999999
sVlng
p6
F16.7326104
ssVviewport
p7
(dp8
Vnortheast
p9
(dp10
Vlat
p11
F53.1532693802915
sVlng
p12
F16.7339593802915
ssVsouthwest
p13
(dp14
Vlat
p15
F53.1505714197085
sVlng
p16
F16.7312614197085
sssVlocation_type
p17
VROOFTOP
p18
ssVformatted_address
p19
Valeja Wojska Polskiego 3, 64-920 Pi\u0142a, Poland
p20
sVplace_id
p21
VChIJJW3PJBDkA0cRnLUBOMk7cs8
p22
sVaddress_components
p23
(lp24
(dp25
Vlong_name
p26
V3
p27
sVtypes
p28
(lp29
Vstreet_number
p30
asVshort_name
p31
g27
sa(dp32
Vlong_name
p33
Valeja Wojska Polskiego
p34
sVtypes
p35
(lp36
Vroute
p37
asVshort_name
p38
Valeja Wojska Polskiego
p39
sa(dp40
Vlong_name
p41
VPi\u0142a
p42
sVtypes
p43
(lp44
Vlocality
p45
aVpolitical
p46
asVshort_name
p47
VPi\u0142a
p48
sa(dp49
Vlong_name
p50
Vpilski
p51
sVtypes
p52
(lp53
Vadministrative_area_level_2
p54
aVpolitical
p55
asVshort_name
p56
Vpilski
p57
sa(dp58
Vlong_name
p59
Vwielkopolskie
p60
sVtypes
p61
(lp62
Vadministrative_area_level_1
p63
aVpolitical
p64
asVshort_name
p65
Vwielkopolskie
p66
sa(dp67
Vlong_name
p68
VPoland
p69
sVtypes
p70
(lp71
Vcountry
p72
aVpolitical
p73
asVshort_name
p74
VPL
p75
sa(dp76
Vlong_name
p77
V64-920
p78
sVtypes
p79
(lp80
Vpostal_code
p81
asVshort_name
p82
V64-920
p83
sasVpartial_match
p84
I01
sVtypes
p85
(lp86
Vestablishment
p87
aVpoint_of_interest
p88
as.