(dp0
Vgeometry
p1
(dp2
Vlocation
p3
(dp4
Vlat
p5
F51.5785052
sVlng
p6
F-0.1244966
ssVviewport
p7
(dp8
Vnortheast
p9
(dp10
Vlat
p11
F51.5798541802915
sVlng
p12
F-0.123147619708498
ssVsouthwest
p13
(dp14
Vlat
p15
F51.5771562197085
sVlng
p16
F-0.125845580291502
sssVlocation_type
p17
VROOFTOP
p18
ssVaddress_components
p19
(lp20
(dp21
Vlong_name
p22
VThe Factory
p23
sVtypes
p24
(lp25
Vpremise
p26
asVshort_name
p27
VThe Factory
p28
sa(dp29
Vlong_name
p30
V1
p31
sVtypes
p32
(lp33
Vstreet_number
p34
asVshort_name
p35
g31
sa(dp36
Vlong_name
p37
VColeridge Road
p38
sVtypes
p39
(lp40
Vroute
p41
asVshort_name
p42
VColeridge Rd
p43
sa(dp44
Vlong_name
p45
VLondon
p46
sVtypes
p47
(lp48
Vpostal_town
p49
asVshort_name
p50
VLondon
p51
sa(dp52
Vlong_name
p53
VGreater London
p54
sVtypes
p55
(lp56
Vadministrative_area_level_2
p57
aVpolitical
p58
asVshort_name
p59
VGreater London
p60
sa(dp61
Vlong_name
p62
VEngland
p63
sVtypes
p64
(lp65
Vadministrative_area_level_1
p66
aVpolitical
p67
asVshort_name
p68
VEngland
p69
sa(dp70
Vlong_name
p71
VUnited Kingdom
p72
sVtypes
p73
(lp74
Vcountry
p75
aVpolitical
p76
asVshort_name
p77
VGB
p78
sa(dp79
Vlong_name
p80
VN8 8EA
p81
sVtypes
p82
(lp83
Vpostal_code
p84
asVshort_name
p85
VN8 8EA
p86
sasVplace_id
p87
VChIJEz-sBLgbdkgRXi0pdJv7P0w
p88
sVformatted_address
p89
VThe Factory, 1 Coleridge Rd, London N8 8EA, UK
p90
sVtypes
p91
(lp92
Velectronics_store
p93
aVestablishment
p94
aVhome_goods_store
p95
aVpoint_of_interest
p96
aVstore
p97
as.