(dp0
Vgeometry
p1
(dp2
Vlocation
p3
(dp4
Vlat
p5
F34.2058492
sVlng
p6
F-118.6901774
ssVviewport
p7
(dp8
Vnortheast
p9
(dp10
Vlat
p11
F34.2150766
sVlng
p12
F-118.67417
ssVsouthwest
p13
(dp14
Vlat
p15
F34.1966208
sVlng
p16
F-118.7061848
sssVlocation_type
p17
VAPPROXIMATE
p18
ssVformatted_address
p19
VBell Canyon, CA 91307, USA
p20
sVplace_id
p21
VChIJyVUYB5wn6IARWpmw2evsB_I
p22
sVaddress_components
p23
(lp24
(dp25
Vlong_name
p26
VBell Canyon
p27
sVtypes
p28
(lp29
Vlocality
p30
aVpolitical
p31
asVshort_name
p32
VBell Canyon
p33
sa(dp34
Vlong_name
p35
VVentura County
p36
sVtypes
p37
(lp38
Vadministrative_area_level_2
p39
aVpolitical
p40
asVshort_name
p41
VVentura County
p42
sa(dp43
Vlong_name
p44
VCalifornia
p45
sVtypes
p46
(lp47
Vadministrative_area_level_1
p48
aVpolitical
p49
asVshort_name
p50
VCA
p51
sa(dp52
Vlong_name
p53
VUnited States
p54
sVtypes
p55
(lp56
Vcountry
p57
aVpolitical
p58
asVshort_name
p59
VUS
p60
sa(dp61
Vlong_name
p62
V91307
p63
sVtypes
p64
(lp65
Vpostal_code
p66
asVshort_name
p67
V91307
p68
sasVpartial_match
p69
I01
sVtypes
p70
(lp71
Vlocality
p72
aVpolitical
p73
as.