(dp0
Vgeometry
p1
(dp2
Vlocation
p3
(dp4
Vlat
p5
F35.6809117
sVlng
p6
F139.7068039
ssVviewport
p7
(dp8
Vnortheast
p9
(dp10
Vlat
p11
F35.68226068029149
sVlng
p12
F139.7081528802915
ssVsouthwest
p13
(dp14
Vlat
p15
F35.67956271970849
sVlng
p16
F139.7054549197085
sssVlocation_type
p17
VROOFTOP
p18
ssVaddress_components
p19
(lp20
(dp21
Vlong_name
p22
V5
p23
sVtypes
p24
(lp25
Vpremise
p26
asVshort_name
p27
g23
sa(dp28
Vlong_name
p29
V23
p30
sVtypes
p31
(lp32
Vpolitical
p33
aVsublocality
p34
aVsublocality_level_4
p35
asVshort_name
p36
V23
p37
sa(dp38
Vlong_name
p39
V4 Chome
p40
sVtypes
p41
(lp42
Vpolitical
p43
aVsublocality
p44
aVsublocality_level_3
p45
asVshort_name
p46
V4 Chome
p47
sa(dp48
Vlong_name
p49
VSendagaya
p50
sVtypes
p51
(lp52
Vpolitical
p53
aVsublocality
p54
aVsublocality_level_2
p55
asVshort_name
p56
VSendagaya
p57
sa(dp58
Vlong_name
p59
VShibuya
p60
sVtypes
p61
(lp62
Vlocality
p63
aVpolitical
p64
asVshort_name
p65
VShibuya
p66
sa(dp67
Vlong_name
p68
VTokyo
p69
sVtypes
p70
(lp71
Vadministrative_area_level_1
p72
aVpolitical
p73
asVshort_name
p74
VTokyo
p75
sa(dp76
Vlong_name
p77
VJapan
p78
sVtypes
p79
(lp80
Vcountry
p81
aVpolitical
p82
asVshort_name
p83
VJP
p84
sa(dp85
Vlong_name
p86
V151-0051
p87
sVtypes
p88
(lp89
Vpostal_code
p90
asVshort_name
p91
V151-0051
p92
sasVplace_id
p93
VChIJX8nVl2-NGGARtkL8mASFHfU
p94
sVformatted_address
p95
V4 Chome-23-5 Sendagaya, Shibuya, Tokyo 151-0051, Japan
p96
sVtypes
p97
(lp98
Vestablishment
p99
aVpoint_of_interest
p100
as.